ARM GAS  C:\Users\jon\AppData\Local\Temp\ccMjDaHk.s 			page 1


   1              		.syntax unified
   2              		.cpu cortex-m3
   3              		.fpu softvfp
   4              		.eabi_attribute 20, 1
   5              		.eabi_attribute 21, 1
   6              		.eabi_attribute 23, 3
   7              		.eabi_attribute 24, 1
   8              		.eabi_attribute 25, 1
   9              		.eabi_attribute 26, 1
  10              		.eabi_attribute 30, 4
  11              		.eabi_attribute 34, 1
  12              		.eabi_attribute 18, 4
  13              		.thumb
  14              		.syntax unified
  15              		.file	"LeftEyebrow.c"
  16              		.text
  17              	.Ltext0:
  18              		.cfi_sections	.debug_frame
  19              		.section	.text.LeftEyebrow_Enable,"ax",%progbits
  20              		.align	1
  21              		.global	LeftEyebrow_Enable
  22              		.thumb
  23              		.thumb_func
  24              		.type	LeftEyebrow_Enable, %function
  25              	LeftEyebrow_Enable:
  26              	.LFB2:
  27              		.file 1 "Generated_Source\\PSoC5\\LeftEyebrow.c"
   1:Generated_Source\PSoC5/LeftEyebrow.c **** /*******************************************************************************
   2:Generated_Source\PSoC5/LeftEyebrow.c **** * File Name: LeftEyebrow.c
   3:Generated_Source\PSoC5/LeftEyebrow.c **** * Version 3.30
   4:Generated_Source\PSoC5/LeftEyebrow.c **** *
   5:Generated_Source\PSoC5/LeftEyebrow.c **** * Description:
   6:Generated_Source\PSoC5/LeftEyebrow.c **** *  The PWM User Module consist of an 8 or 16-bit counter with two 8 or 16-bit
   7:Generated_Source\PSoC5/LeftEyebrow.c **** *  comparitors. Each instance of this user module is capable of generating
   8:Generated_Source\PSoC5/LeftEyebrow.c **** *  two PWM outputs with the same period. The pulse width is selectable between
   9:Generated_Source\PSoC5/LeftEyebrow.c **** *  1 and 255/65535. The period is selectable between 2 and 255/65536 clocks.
  10:Generated_Source\PSoC5/LeftEyebrow.c **** *  The compare value output may be configured to be active when the present
  11:Generated_Source\PSoC5/LeftEyebrow.c **** *  counter is less than or less than/equal to the compare value.
  12:Generated_Source\PSoC5/LeftEyebrow.c **** *  A terminal count output is also provided. It generates a pulse one clock
  13:Generated_Source\PSoC5/LeftEyebrow.c **** *  width wide when the counter is equal to zero.
  14:Generated_Source\PSoC5/LeftEyebrow.c **** *
  15:Generated_Source\PSoC5/LeftEyebrow.c **** * Note:
  16:Generated_Source\PSoC5/LeftEyebrow.c **** *
  17:Generated_Source\PSoC5/LeftEyebrow.c **** *******************************************************************************
  18:Generated_Source\PSoC5/LeftEyebrow.c **** * Copyright 2008-2014, Cypress Semiconductor Corporation.  All rights reserved.
  19:Generated_Source\PSoC5/LeftEyebrow.c **** * You may use this file only in accordance with the license, terms, conditions,
  20:Generated_Source\PSoC5/LeftEyebrow.c **** * disclaimers, and limitations in the end user license agreement accompanying
  21:Generated_Source\PSoC5/LeftEyebrow.c **** * the software package with which this file was provided.
  22:Generated_Source\PSoC5/LeftEyebrow.c **** ********************************************************************************/
  23:Generated_Source\PSoC5/LeftEyebrow.c **** 
  24:Generated_Source\PSoC5/LeftEyebrow.c **** #include "LeftEyebrow.h"
  25:Generated_Source\PSoC5/LeftEyebrow.c **** 
  26:Generated_Source\PSoC5/LeftEyebrow.c **** /* Error message for removed <resource> through optimization */
  27:Generated_Source\PSoC5/LeftEyebrow.c **** #ifdef LeftEyebrow_PWMUDB_genblk1_ctrlreg__REMOVED
  28:Generated_Source\PSoC5/LeftEyebrow.c ****     #error PWM_v3_30 detected with a constant 0 for the enable or \
  29:Generated_Source\PSoC5/LeftEyebrow.c ****          constant 1 for reset. This will prevent the component from operating.
  30:Generated_Source\PSoC5/LeftEyebrow.c **** #endif /* LeftEyebrow_PWMUDB_genblk1_ctrlreg__REMOVED */
ARM GAS  C:\Users\jon\AppData\Local\Temp\ccMjDaHk.s 			page 2


  31:Generated_Source\PSoC5/LeftEyebrow.c **** 
  32:Generated_Source\PSoC5/LeftEyebrow.c **** uint8 LeftEyebrow_initVar = 0u;
  33:Generated_Source\PSoC5/LeftEyebrow.c **** 
  34:Generated_Source\PSoC5/LeftEyebrow.c **** 
  35:Generated_Source\PSoC5/LeftEyebrow.c **** /*******************************************************************************
  36:Generated_Source\PSoC5/LeftEyebrow.c **** * Function Name: LeftEyebrow_Start
  37:Generated_Source\PSoC5/LeftEyebrow.c **** ********************************************************************************
  38:Generated_Source\PSoC5/LeftEyebrow.c **** *
  39:Generated_Source\PSoC5/LeftEyebrow.c **** * Summary:
  40:Generated_Source\PSoC5/LeftEyebrow.c **** *  The start function initializes the pwm with the default values, the
  41:Generated_Source\PSoC5/LeftEyebrow.c **** *  enables the counter to begin counting.  It does not enable interrupts,
  42:Generated_Source\PSoC5/LeftEyebrow.c **** *  the EnableInt command should be called if interrupt generation is required.
  43:Generated_Source\PSoC5/LeftEyebrow.c **** *
  44:Generated_Source\PSoC5/LeftEyebrow.c **** * Parameters:
  45:Generated_Source\PSoC5/LeftEyebrow.c **** *  None
  46:Generated_Source\PSoC5/LeftEyebrow.c **** *
  47:Generated_Source\PSoC5/LeftEyebrow.c **** * Return:
  48:Generated_Source\PSoC5/LeftEyebrow.c **** *  None
  49:Generated_Source\PSoC5/LeftEyebrow.c **** *
  50:Generated_Source\PSoC5/LeftEyebrow.c **** * Global variables:
  51:Generated_Source\PSoC5/LeftEyebrow.c **** *  LeftEyebrow_initVar: Is modified when this function is called for the
  52:Generated_Source\PSoC5/LeftEyebrow.c **** *   first time. Is used to ensure that initialization happens only once.
  53:Generated_Source\PSoC5/LeftEyebrow.c **** *
  54:Generated_Source\PSoC5/LeftEyebrow.c **** *******************************************************************************/
  55:Generated_Source\PSoC5/LeftEyebrow.c **** void LeftEyebrow_Start(void) 
  56:Generated_Source\PSoC5/LeftEyebrow.c **** {
  57:Generated_Source\PSoC5/LeftEyebrow.c ****     /* If not Initialized then initialize all required hardware and software */
  58:Generated_Source\PSoC5/LeftEyebrow.c ****     if(LeftEyebrow_initVar == 0u)
  59:Generated_Source\PSoC5/LeftEyebrow.c ****     {
  60:Generated_Source\PSoC5/LeftEyebrow.c ****         LeftEyebrow_Init();
  61:Generated_Source\PSoC5/LeftEyebrow.c ****         LeftEyebrow_initVar = 1u;
  62:Generated_Source\PSoC5/LeftEyebrow.c ****     }
  63:Generated_Source\PSoC5/LeftEyebrow.c ****     LeftEyebrow_Enable();
  64:Generated_Source\PSoC5/LeftEyebrow.c **** 
  65:Generated_Source\PSoC5/LeftEyebrow.c **** }
  66:Generated_Source\PSoC5/LeftEyebrow.c **** 
  67:Generated_Source\PSoC5/LeftEyebrow.c **** 
  68:Generated_Source\PSoC5/LeftEyebrow.c **** /*******************************************************************************
  69:Generated_Source\PSoC5/LeftEyebrow.c **** * Function Name: LeftEyebrow_Init
  70:Generated_Source\PSoC5/LeftEyebrow.c **** ********************************************************************************
  71:Generated_Source\PSoC5/LeftEyebrow.c **** *
  72:Generated_Source\PSoC5/LeftEyebrow.c **** * Summary:
  73:Generated_Source\PSoC5/LeftEyebrow.c **** *  Initialize component's parameters to the parameters set by user in the
  74:Generated_Source\PSoC5/LeftEyebrow.c **** *  customizer of the component placed onto schematic. Usually called in
  75:Generated_Source\PSoC5/LeftEyebrow.c **** *  LeftEyebrow_Start().
  76:Generated_Source\PSoC5/LeftEyebrow.c **** *
  77:Generated_Source\PSoC5/LeftEyebrow.c **** * Parameters:
  78:Generated_Source\PSoC5/LeftEyebrow.c **** *  None
  79:Generated_Source\PSoC5/LeftEyebrow.c **** *
  80:Generated_Source\PSoC5/LeftEyebrow.c **** * Return:
  81:Generated_Source\PSoC5/LeftEyebrow.c **** *  None
  82:Generated_Source\PSoC5/LeftEyebrow.c **** *
  83:Generated_Source\PSoC5/LeftEyebrow.c **** *******************************************************************************/
  84:Generated_Source\PSoC5/LeftEyebrow.c **** void LeftEyebrow_Init(void) 
  85:Generated_Source\PSoC5/LeftEyebrow.c **** {
  86:Generated_Source\PSoC5/LeftEyebrow.c ****     #if (LeftEyebrow_UsingFixedFunction || LeftEyebrow_UseControl)
  87:Generated_Source\PSoC5/LeftEyebrow.c ****         uint8 ctrl;
ARM GAS  C:\Users\jon\AppData\Local\Temp\ccMjDaHk.s 			page 3


  88:Generated_Source\PSoC5/LeftEyebrow.c ****     #endif /* (LeftEyebrow_UsingFixedFunction || LeftEyebrow_UseControl) */
  89:Generated_Source\PSoC5/LeftEyebrow.c **** 
  90:Generated_Source\PSoC5/LeftEyebrow.c ****     #if(!LeftEyebrow_UsingFixedFunction)
  91:Generated_Source\PSoC5/LeftEyebrow.c ****         #if(LeftEyebrow_UseStatus)
  92:Generated_Source\PSoC5/LeftEyebrow.c ****             /* Interrupt State Backup for Critical Region*/
  93:Generated_Source\PSoC5/LeftEyebrow.c ****             uint8 LeftEyebrow_interruptState;
  94:Generated_Source\PSoC5/LeftEyebrow.c ****         #endif /* (LeftEyebrow_UseStatus) */
  95:Generated_Source\PSoC5/LeftEyebrow.c ****     #endif /* (!LeftEyebrow_UsingFixedFunction) */
  96:Generated_Source\PSoC5/LeftEyebrow.c **** 
  97:Generated_Source\PSoC5/LeftEyebrow.c ****     #if (LeftEyebrow_UsingFixedFunction)
  98:Generated_Source\PSoC5/LeftEyebrow.c ****         /* You are allowed to write the compare value (FF only) */
  99:Generated_Source\PSoC5/LeftEyebrow.c ****         LeftEyebrow_CONTROL |= LeftEyebrow_CFG0_MODE;
 100:Generated_Source\PSoC5/LeftEyebrow.c ****         #if (LeftEyebrow_DeadBand2_4)
 101:Generated_Source\PSoC5/LeftEyebrow.c ****             LeftEyebrow_CONTROL |= LeftEyebrow_CFG0_DB;
 102:Generated_Source\PSoC5/LeftEyebrow.c ****         #endif /* (LeftEyebrow_DeadBand2_4) */
 103:Generated_Source\PSoC5/LeftEyebrow.c **** 
 104:Generated_Source\PSoC5/LeftEyebrow.c ****         ctrl = LeftEyebrow_CONTROL3 & ((uint8 )(~LeftEyebrow_CTRL_CMPMODE1_MASK));
 105:Generated_Source\PSoC5/LeftEyebrow.c ****         LeftEyebrow_CONTROL3 = ctrl | LeftEyebrow_DEFAULT_COMPARE1_MODE;
 106:Generated_Source\PSoC5/LeftEyebrow.c **** 
 107:Generated_Source\PSoC5/LeftEyebrow.c ****          /* Clear and Set SYNCTC and SYNCCMP bits of RT1 register */
 108:Generated_Source\PSoC5/LeftEyebrow.c ****         LeftEyebrow_RT1 &= ((uint8)(~LeftEyebrow_RT1_MASK));
 109:Generated_Source\PSoC5/LeftEyebrow.c ****         LeftEyebrow_RT1 |= LeftEyebrow_SYNC;
 110:Generated_Source\PSoC5/LeftEyebrow.c **** 
 111:Generated_Source\PSoC5/LeftEyebrow.c ****         /*Enable DSI Sync all all inputs of the PWM*/
 112:Generated_Source\PSoC5/LeftEyebrow.c ****         LeftEyebrow_RT1 &= ((uint8)(~LeftEyebrow_SYNCDSI_MASK));
 113:Generated_Source\PSoC5/LeftEyebrow.c ****         LeftEyebrow_RT1 |= LeftEyebrow_SYNCDSI_EN;
 114:Generated_Source\PSoC5/LeftEyebrow.c **** 
 115:Generated_Source\PSoC5/LeftEyebrow.c ****     #elif (LeftEyebrow_UseControl)
 116:Generated_Source\PSoC5/LeftEyebrow.c ****         /* Set the default compare mode defined in the parameter */
 117:Generated_Source\PSoC5/LeftEyebrow.c ****         ctrl = LeftEyebrow_CONTROL & ((uint8)(~LeftEyebrow_CTRL_CMPMODE2_MASK)) &
 118:Generated_Source\PSoC5/LeftEyebrow.c ****                 ((uint8)(~LeftEyebrow_CTRL_CMPMODE1_MASK));
 119:Generated_Source\PSoC5/LeftEyebrow.c ****         LeftEyebrow_CONTROL = ctrl | LeftEyebrow_DEFAULT_COMPARE2_MODE |
 120:Generated_Source\PSoC5/LeftEyebrow.c ****                                    LeftEyebrow_DEFAULT_COMPARE1_MODE;
 121:Generated_Source\PSoC5/LeftEyebrow.c ****     #endif /* (LeftEyebrow_UsingFixedFunction) */
 122:Generated_Source\PSoC5/LeftEyebrow.c **** 
 123:Generated_Source\PSoC5/LeftEyebrow.c ****     #if (!LeftEyebrow_UsingFixedFunction)
 124:Generated_Source\PSoC5/LeftEyebrow.c ****         #if (LeftEyebrow_Resolution == 8)
 125:Generated_Source\PSoC5/LeftEyebrow.c ****             /* Set FIFO 0 to 1 byte register for period*/
 126:Generated_Source\PSoC5/LeftEyebrow.c ****             LeftEyebrow_AUX_CONTROLDP0 |= (LeftEyebrow_AUX_CTRL_FIFO0_CLR);
 127:Generated_Source\PSoC5/LeftEyebrow.c ****         #else /* (LeftEyebrow_Resolution == 16)*/
 128:Generated_Source\PSoC5/LeftEyebrow.c ****             /* Set FIFO 0 to 1 byte register for period */
 129:Generated_Source\PSoC5/LeftEyebrow.c ****             LeftEyebrow_AUX_CONTROLDP0 |= (LeftEyebrow_AUX_CTRL_FIFO0_CLR);
 130:Generated_Source\PSoC5/LeftEyebrow.c ****             LeftEyebrow_AUX_CONTROLDP1 |= (LeftEyebrow_AUX_CTRL_FIFO0_CLR);
 131:Generated_Source\PSoC5/LeftEyebrow.c ****         #endif /* (LeftEyebrow_Resolution == 8) */
 132:Generated_Source\PSoC5/LeftEyebrow.c **** 
 133:Generated_Source\PSoC5/LeftEyebrow.c ****         LeftEyebrow_WriteCounter(LeftEyebrow_INIT_PERIOD_VALUE);
 134:Generated_Source\PSoC5/LeftEyebrow.c ****     #endif /* (!LeftEyebrow_UsingFixedFunction) */
 135:Generated_Source\PSoC5/LeftEyebrow.c **** 
 136:Generated_Source\PSoC5/LeftEyebrow.c ****     LeftEyebrow_WritePeriod(LeftEyebrow_INIT_PERIOD_VALUE);
 137:Generated_Source\PSoC5/LeftEyebrow.c **** 
 138:Generated_Source\PSoC5/LeftEyebrow.c ****         #if (LeftEyebrow_UseOneCompareMode)
 139:Generated_Source\PSoC5/LeftEyebrow.c ****             LeftEyebrow_WriteCompare(LeftEyebrow_INIT_COMPARE_VALUE1);
 140:Generated_Source\PSoC5/LeftEyebrow.c ****         #else
 141:Generated_Source\PSoC5/LeftEyebrow.c ****             LeftEyebrow_WriteCompare1(LeftEyebrow_INIT_COMPARE_VALUE1);
 142:Generated_Source\PSoC5/LeftEyebrow.c ****             LeftEyebrow_WriteCompare2(LeftEyebrow_INIT_COMPARE_VALUE2);
 143:Generated_Source\PSoC5/LeftEyebrow.c ****         #endif /* (LeftEyebrow_UseOneCompareMode) */
 144:Generated_Source\PSoC5/LeftEyebrow.c **** 
ARM GAS  C:\Users\jon\AppData\Local\Temp\ccMjDaHk.s 			page 4


 145:Generated_Source\PSoC5/LeftEyebrow.c ****         #if (LeftEyebrow_KillModeMinTime)
 146:Generated_Source\PSoC5/LeftEyebrow.c ****             LeftEyebrow_WriteKillTime(LeftEyebrow_MinimumKillTime);
 147:Generated_Source\PSoC5/LeftEyebrow.c ****         #endif /* (LeftEyebrow_KillModeMinTime) */
 148:Generated_Source\PSoC5/LeftEyebrow.c **** 
 149:Generated_Source\PSoC5/LeftEyebrow.c ****         #if (LeftEyebrow_DeadBandUsed)
 150:Generated_Source\PSoC5/LeftEyebrow.c ****             LeftEyebrow_WriteDeadTime(LeftEyebrow_INIT_DEAD_TIME);
 151:Generated_Source\PSoC5/LeftEyebrow.c ****         #endif /* (LeftEyebrow_DeadBandUsed) */
 152:Generated_Source\PSoC5/LeftEyebrow.c **** 
 153:Generated_Source\PSoC5/LeftEyebrow.c ****     #if (LeftEyebrow_UseStatus || LeftEyebrow_UsingFixedFunction)
 154:Generated_Source\PSoC5/LeftEyebrow.c ****         LeftEyebrow_SetInterruptMode(LeftEyebrow_INIT_INTERRUPTS_MODE);
 155:Generated_Source\PSoC5/LeftEyebrow.c ****     #endif /* (LeftEyebrow_UseStatus || LeftEyebrow_UsingFixedFunction) */
 156:Generated_Source\PSoC5/LeftEyebrow.c **** 
 157:Generated_Source\PSoC5/LeftEyebrow.c ****     #if (LeftEyebrow_UsingFixedFunction)
 158:Generated_Source\PSoC5/LeftEyebrow.c ****         /* Globally Enable the Fixed Function Block chosen */
 159:Generated_Source\PSoC5/LeftEyebrow.c ****         LeftEyebrow_GLOBAL_ENABLE |= LeftEyebrow_BLOCK_EN_MASK;
 160:Generated_Source\PSoC5/LeftEyebrow.c ****         /* Set the Interrupt source to come from the status register */
 161:Generated_Source\PSoC5/LeftEyebrow.c ****         LeftEyebrow_CONTROL2 |= LeftEyebrow_CTRL2_IRQ_SEL;
 162:Generated_Source\PSoC5/LeftEyebrow.c ****     #else
 163:Generated_Source\PSoC5/LeftEyebrow.c ****         #if(LeftEyebrow_UseStatus)
 164:Generated_Source\PSoC5/LeftEyebrow.c **** 
 165:Generated_Source\PSoC5/LeftEyebrow.c ****             /* CyEnterCriticalRegion and CyExitCriticalRegion are used to mark following region cri
 166:Generated_Source\PSoC5/LeftEyebrow.c ****             /* Enter Critical Region*/
 167:Generated_Source\PSoC5/LeftEyebrow.c ****             LeftEyebrow_interruptState = CyEnterCriticalSection();
 168:Generated_Source\PSoC5/LeftEyebrow.c ****             /* Use the interrupt output of the status register for IRQ output */
 169:Generated_Source\PSoC5/LeftEyebrow.c ****             LeftEyebrow_STATUS_AUX_CTRL |= LeftEyebrow_STATUS_ACTL_INT_EN_MASK;
 170:Generated_Source\PSoC5/LeftEyebrow.c **** 
 171:Generated_Source\PSoC5/LeftEyebrow.c ****              /* Exit Critical Region*/
 172:Generated_Source\PSoC5/LeftEyebrow.c ****             CyExitCriticalSection(LeftEyebrow_interruptState);
 173:Generated_Source\PSoC5/LeftEyebrow.c **** 
 174:Generated_Source\PSoC5/LeftEyebrow.c ****             /* Clear the FIFO to enable the LeftEyebrow_STATUS_FIFOFULL
 175:Generated_Source\PSoC5/LeftEyebrow.c ****                    bit to be set on FIFO full. */
 176:Generated_Source\PSoC5/LeftEyebrow.c ****             LeftEyebrow_ClearFIFO();
 177:Generated_Source\PSoC5/LeftEyebrow.c ****         #endif /* (LeftEyebrow_UseStatus) */
 178:Generated_Source\PSoC5/LeftEyebrow.c ****     #endif /* (LeftEyebrow_UsingFixedFunction) */
 179:Generated_Source\PSoC5/LeftEyebrow.c **** }
 180:Generated_Source\PSoC5/LeftEyebrow.c **** 
 181:Generated_Source\PSoC5/LeftEyebrow.c **** 
 182:Generated_Source\PSoC5/LeftEyebrow.c **** /*******************************************************************************
 183:Generated_Source\PSoC5/LeftEyebrow.c **** * Function Name: LeftEyebrow_Enable
 184:Generated_Source\PSoC5/LeftEyebrow.c **** ********************************************************************************
 185:Generated_Source\PSoC5/LeftEyebrow.c **** *
 186:Generated_Source\PSoC5/LeftEyebrow.c **** * Summary:
 187:Generated_Source\PSoC5/LeftEyebrow.c **** *  Enables the PWM block operation
 188:Generated_Source\PSoC5/LeftEyebrow.c **** *
 189:Generated_Source\PSoC5/LeftEyebrow.c **** * Parameters:
 190:Generated_Source\PSoC5/LeftEyebrow.c **** *  None
 191:Generated_Source\PSoC5/LeftEyebrow.c **** *
 192:Generated_Source\PSoC5/LeftEyebrow.c **** * Return:
 193:Generated_Source\PSoC5/LeftEyebrow.c **** *  None
 194:Generated_Source\PSoC5/LeftEyebrow.c **** *
 195:Generated_Source\PSoC5/LeftEyebrow.c **** * Side Effects:
 196:Generated_Source\PSoC5/LeftEyebrow.c **** *  This works only if software enable mode is chosen
 197:Generated_Source\PSoC5/LeftEyebrow.c **** *
 198:Generated_Source\PSoC5/LeftEyebrow.c **** *******************************************************************************/
 199:Generated_Source\PSoC5/LeftEyebrow.c **** void LeftEyebrow_Enable(void) 
 200:Generated_Source\PSoC5/LeftEyebrow.c **** {
  28              		.loc 1 200 0
ARM GAS  C:\Users\jon\AppData\Local\Temp\ccMjDaHk.s 			page 5


  29              		.cfi_startproc
  30              		@ args = 0, pretend = 0, frame = 0
  31              		@ frame_needed = 0, uses_anonymous_args = 0
  32              		@ link register save eliminated.
 201:Generated_Source\PSoC5/LeftEyebrow.c ****     /* Globally Enable the Fixed Function Block chosen */
 202:Generated_Source\PSoC5/LeftEyebrow.c ****     #if (LeftEyebrow_UsingFixedFunction)
 203:Generated_Source\PSoC5/LeftEyebrow.c ****         LeftEyebrow_GLOBAL_ENABLE |= LeftEyebrow_BLOCK_EN_MASK;
 204:Generated_Source\PSoC5/LeftEyebrow.c ****         LeftEyebrow_GLOBAL_STBY_ENABLE |= LeftEyebrow_BLOCK_STBY_EN_MASK;
 205:Generated_Source\PSoC5/LeftEyebrow.c ****     #endif /* (LeftEyebrow_UsingFixedFunction) */
 206:Generated_Source\PSoC5/LeftEyebrow.c **** 
 207:Generated_Source\PSoC5/LeftEyebrow.c ****     /* Enable the PWM from the control register  */
 208:Generated_Source\PSoC5/LeftEyebrow.c ****     #if (LeftEyebrow_UseControl || LeftEyebrow_UsingFixedFunction)
 209:Generated_Source\PSoC5/LeftEyebrow.c ****         LeftEyebrow_CONTROL |= LeftEyebrow_CTRL_ENABLE;
  33              		.loc 1 209 0
  34 0000 024A     		ldr	r2, .L2
  35 0002 1378     		ldrb	r3, [r2]	@ zero_extendqisi2
  36 0004 43F08003 		orr	r3, r3, #128
  37 0008 1370     		strb	r3, [r2]
  38 000a 7047     		bx	lr
  39              	.L3:
  40              		.align	2
  41              	.L2:
  42 000c 7B640040 		.word	1073767547
  43              		.cfi_endproc
  44              	.LFE2:
  45              		.size	LeftEyebrow_Enable, .-LeftEyebrow_Enable
  46              		.section	.text.LeftEyebrow_Stop,"ax",%progbits
  47              		.align	1
  48              		.global	LeftEyebrow_Stop
  49              		.thumb
  50              		.thumb_func
  51              		.type	LeftEyebrow_Stop, %function
  52              	LeftEyebrow_Stop:
  53              	.LFB3:
 210:Generated_Source\PSoC5/LeftEyebrow.c ****     #endif /* (LeftEyebrow_UseControl || LeftEyebrow_UsingFixedFunction) */
 211:Generated_Source\PSoC5/LeftEyebrow.c **** }
 212:Generated_Source\PSoC5/LeftEyebrow.c **** 
 213:Generated_Source\PSoC5/LeftEyebrow.c **** 
 214:Generated_Source\PSoC5/LeftEyebrow.c **** /*******************************************************************************
 215:Generated_Source\PSoC5/LeftEyebrow.c **** * Function Name: LeftEyebrow_Stop
 216:Generated_Source\PSoC5/LeftEyebrow.c **** ********************************************************************************
 217:Generated_Source\PSoC5/LeftEyebrow.c **** *
 218:Generated_Source\PSoC5/LeftEyebrow.c **** * Summary:
 219:Generated_Source\PSoC5/LeftEyebrow.c **** *  The stop function halts the PWM, but does not change any modes or disable
 220:Generated_Source\PSoC5/LeftEyebrow.c **** *  interrupts.
 221:Generated_Source\PSoC5/LeftEyebrow.c **** *
 222:Generated_Source\PSoC5/LeftEyebrow.c **** * Parameters:
 223:Generated_Source\PSoC5/LeftEyebrow.c **** *  None
 224:Generated_Source\PSoC5/LeftEyebrow.c **** *
 225:Generated_Source\PSoC5/LeftEyebrow.c **** * Return:
 226:Generated_Source\PSoC5/LeftEyebrow.c **** *  None
 227:Generated_Source\PSoC5/LeftEyebrow.c **** *
 228:Generated_Source\PSoC5/LeftEyebrow.c **** * Side Effects:
 229:Generated_Source\PSoC5/LeftEyebrow.c **** *  If the Enable mode is set to Hardware only then this function
 230:Generated_Source\PSoC5/LeftEyebrow.c **** *  has no effect on the operation of the PWM
 231:Generated_Source\PSoC5/LeftEyebrow.c **** *
 232:Generated_Source\PSoC5/LeftEyebrow.c **** *******************************************************************************/
ARM GAS  C:\Users\jon\AppData\Local\Temp\ccMjDaHk.s 			page 6


 233:Generated_Source\PSoC5/LeftEyebrow.c **** void LeftEyebrow_Stop(void) 
 234:Generated_Source\PSoC5/LeftEyebrow.c **** {
  54              		.loc 1 234 0
  55              		.cfi_startproc
  56              		@ args = 0, pretend = 0, frame = 0
  57              		@ frame_needed = 0, uses_anonymous_args = 0
  58              		@ link register save eliminated.
 235:Generated_Source\PSoC5/LeftEyebrow.c ****     #if (LeftEyebrow_UseControl || LeftEyebrow_UsingFixedFunction)
 236:Generated_Source\PSoC5/LeftEyebrow.c ****         LeftEyebrow_CONTROL &= ((uint8)(~LeftEyebrow_CTRL_ENABLE));
  59              		.loc 1 236 0
  60 0000 024A     		ldr	r2, .L5
  61 0002 1378     		ldrb	r3, [r2]	@ zero_extendqisi2
  62 0004 03F07F03 		and	r3, r3, #127
  63 0008 1370     		strb	r3, [r2]
  64 000a 7047     		bx	lr
  65              	.L6:
  66              		.align	2
  67              	.L5:
  68 000c 7B640040 		.word	1073767547
  69              		.cfi_endproc
  70              	.LFE3:
  71              		.size	LeftEyebrow_Stop, .-LeftEyebrow_Stop
  72              		.section	.text.LeftEyebrow_WriteCounter,"ax",%progbits
  73              		.align	1
  74              		.global	LeftEyebrow_WriteCounter
  75              		.thumb
  76              		.thumb_func
  77              		.type	LeftEyebrow_WriteCounter, %function
  78              	LeftEyebrow_WriteCounter:
  79              	.LFB4:
 237:Generated_Source\PSoC5/LeftEyebrow.c ****     #endif /* (LeftEyebrow_UseControl || LeftEyebrow_UsingFixedFunction) */
 238:Generated_Source\PSoC5/LeftEyebrow.c **** 
 239:Generated_Source\PSoC5/LeftEyebrow.c ****     /* Globally disable the Fixed Function Block chosen */
 240:Generated_Source\PSoC5/LeftEyebrow.c ****     #if (LeftEyebrow_UsingFixedFunction)
 241:Generated_Source\PSoC5/LeftEyebrow.c ****         LeftEyebrow_GLOBAL_ENABLE &= ((uint8)(~LeftEyebrow_BLOCK_EN_MASK));
 242:Generated_Source\PSoC5/LeftEyebrow.c ****         LeftEyebrow_GLOBAL_STBY_ENABLE &= ((uint8)(~LeftEyebrow_BLOCK_STBY_EN_MASK));
 243:Generated_Source\PSoC5/LeftEyebrow.c ****     #endif /* (LeftEyebrow_UsingFixedFunction) */
 244:Generated_Source\PSoC5/LeftEyebrow.c **** }
 245:Generated_Source\PSoC5/LeftEyebrow.c **** 
 246:Generated_Source\PSoC5/LeftEyebrow.c **** #if (LeftEyebrow_UseOneCompareMode)
 247:Generated_Source\PSoC5/LeftEyebrow.c ****     #if (LeftEyebrow_CompareMode1SW)
 248:Generated_Source\PSoC5/LeftEyebrow.c **** 
 249:Generated_Source\PSoC5/LeftEyebrow.c **** 
 250:Generated_Source\PSoC5/LeftEyebrow.c ****         /*******************************************************************************
 251:Generated_Source\PSoC5/LeftEyebrow.c ****         * Function Name: LeftEyebrow_SetCompareMode
 252:Generated_Source\PSoC5/LeftEyebrow.c ****         ********************************************************************************
 253:Generated_Source\PSoC5/LeftEyebrow.c ****         *
 254:Generated_Source\PSoC5/LeftEyebrow.c ****         * Summary:
 255:Generated_Source\PSoC5/LeftEyebrow.c ****         *  This function writes the Compare Mode for the pwm output when in Dither mode,
 256:Generated_Source\PSoC5/LeftEyebrow.c ****         *  Center Align Mode or One Output Mode.
 257:Generated_Source\PSoC5/LeftEyebrow.c ****         *
 258:Generated_Source\PSoC5/LeftEyebrow.c ****         * Parameters:
 259:Generated_Source\PSoC5/LeftEyebrow.c ****         *  comparemode:  The new compare mode for the PWM output. Use the compare types
 260:Generated_Source\PSoC5/LeftEyebrow.c ****         *                defined in the H file as input arguments.
 261:Generated_Source\PSoC5/LeftEyebrow.c ****         *
 262:Generated_Source\PSoC5/LeftEyebrow.c ****         * Return:
 263:Generated_Source\PSoC5/LeftEyebrow.c ****         *  None
ARM GAS  C:\Users\jon\AppData\Local\Temp\ccMjDaHk.s 			page 7


 264:Generated_Source\PSoC5/LeftEyebrow.c ****         *
 265:Generated_Source\PSoC5/LeftEyebrow.c ****         *******************************************************************************/
 266:Generated_Source\PSoC5/LeftEyebrow.c ****         void LeftEyebrow_SetCompareMode(uint8 comparemode) 
 267:Generated_Source\PSoC5/LeftEyebrow.c ****         {
 268:Generated_Source\PSoC5/LeftEyebrow.c ****             #if(LeftEyebrow_UsingFixedFunction)
 269:Generated_Source\PSoC5/LeftEyebrow.c **** 
 270:Generated_Source\PSoC5/LeftEyebrow.c ****                 #if(0 != LeftEyebrow_CTRL_CMPMODE1_SHIFT)
 271:Generated_Source\PSoC5/LeftEyebrow.c ****                     uint8 comparemodemasked = ((uint8)((uint8)comparemode << LeftEyebrow_CTRL_CMPMO
 272:Generated_Source\PSoC5/LeftEyebrow.c ****                 #else
 273:Generated_Source\PSoC5/LeftEyebrow.c ****                     uint8 comparemodemasked = comparemode;
 274:Generated_Source\PSoC5/LeftEyebrow.c ****                 #endif /* (0 != LeftEyebrow_CTRL_CMPMODE1_SHIFT) */
 275:Generated_Source\PSoC5/LeftEyebrow.c **** 
 276:Generated_Source\PSoC5/LeftEyebrow.c ****                 LeftEyebrow_CONTROL3 &= ((uint8)(~LeftEyebrow_CTRL_CMPMODE1_MASK)); /*Clear Existin
 277:Generated_Source\PSoC5/LeftEyebrow.c ****                 LeftEyebrow_CONTROL3 |= comparemodemasked;
 278:Generated_Source\PSoC5/LeftEyebrow.c **** 
 279:Generated_Source\PSoC5/LeftEyebrow.c ****             #elif (LeftEyebrow_UseControl)
 280:Generated_Source\PSoC5/LeftEyebrow.c **** 
 281:Generated_Source\PSoC5/LeftEyebrow.c ****                 #if(0 != LeftEyebrow_CTRL_CMPMODE1_SHIFT)
 282:Generated_Source\PSoC5/LeftEyebrow.c ****                     uint8 comparemode1masked = ((uint8)((uint8)comparemode << LeftEyebrow_CTRL_CMPM
 283:Generated_Source\PSoC5/LeftEyebrow.c ****                                                 LeftEyebrow_CTRL_CMPMODE1_MASK;
 284:Generated_Source\PSoC5/LeftEyebrow.c ****                 #else
 285:Generated_Source\PSoC5/LeftEyebrow.c ****                     uint8 comparemode1masked = comparemode & LeftEyebrow_CTRL_CMPMODE1_MASK;
 286:Generated_Source\PSoC5/LeftEyebrow.c ****                 #endif /* (0 != LeftEyebrow_CTRL_CMPMODE1_SHIFT) */
 287:Generated_Source\PSoC5/LeftEyebrow.c **** 
 288:Generated_Source\PSoC5/LeftEyebrow.c ****                 #if(0 != LeftEyebrow_CTRL_CMPMODE2_SHIFT)
 289:Generated_Source\PSoC5/LeftEyebrow.c ****                     uint8 comparemode2masked = ((uint8)((uint8)comparemode << LeftEyebrow_CTRL_CMPM
 290:Generated_Source\PSoC5/LeftEyebrow.c ****                                                LeftEyebrow_CTRL_CMPMODE2_MASK;
 291:Generated_Source\PSoC5/LeftEyebrow.c ****                 #else
 292:Generated_Source\PSoC5/LeftEyebrow.c ****                     uint8 comparemode2masked = comparemode & LeftEyebrow_CTRL_CMPMODE2_MASK;
 293:Generated_Source\PSoC5/LeftEyebrow.c ****                 #endif /* (0 != LeftEyebrow_CTRL_CMPMODE2_SHIFT) */
 294:Generated_Source\PSoC5/LeftEyebrow.c **** 
 295:Generated_Source\PSoC5/LeftEyebrow.c ****                 /*Clear existing mode */
 296:Generated_Source\PSoC5/LeftEyebrow.c ****                 LeftEyebrow_CONTROL &= ((uint8)(~(LeftEyebrow_CTRL_CMPMODE1_MASK |
 297:Generated_Source\PSoC5/LeftEyebrow.c ****                                             LeftEyebrow_CTRL_CMPMODE2_MASK)));
 298:Generated_Source\PSoC5/LeftEyebrow.c ****                 LeftEyebrow_CONTROL |= (comparemode1masked | comparemode2masked);
 299:Generated_Source\PSoC5/LeftEyebrow.c **** 
 300:Generated_Source\PSoC5/LeftEyebrow.c ****             #else
 301:Generated_Source\PSoC5/LeftEyebrow.c ****                 uint8 temp = comparemode;
 302:Generated_Source\PSoC5/LeftEyebrow.c ****             #endif /* (LeftEyebrow_UsingFixedFunction) */
 303:Generated_Source\PSoC5/LeftEyebrow.c ****         }
 304:Generated_Source\PSoC5/LeftEyebrow.c ****     #endif /* LeftEyebrow_CompareMode1SW */
 305:Generated_Source\PSoC5/LeftEyebrow.c **** 
 306:Generated_Source\PSoC5/LeftEyebrow.c **** #else /* UseOneCompareMode */
 307:Generated_Source\PSoC5/LeftEyebrow.c **** 
 308:Generated_Source\PSoC5/LeftEyebrow.c ****     #if (LeftEyebrow_CompareMode1SW)
 309:Generated_Source\PSoC5/LeftEyebrow.c **** 
 310:Generated_Source\PSoC5/LeftEyebrow.c **** 
 311:Generated_Source\PSoC5/LeftEyebrow.c ****         /*******************************************************************************
 312:Generated_Source\PSoC5/LeftEyebrow.c ****         * Function Name: LeftEyebrow_SetCompareMode1
 313:Generated_Source\PSoC5/LeftEyebrow.c ****         ********************************************************************************
 314:Generated_Source\PSoC5/LeftEyebrow.c ****         *
 315:Generated_Source\PSoC5/LeftEyebrow.c ****         * Summary:
 316:Generated_Source\PSoC5/LeftEyebrow.c ****         *  This function writes the Compare Mode for the pwm or pwm1 output
 317:Generated_Source\PSoC5/LeftEyebrow.c ****         *
 318:Generated_Source\PSoC5/LeftEyebrow.c ****         * Parameters:
 319:Generated_Source\PSoC5/LeftEyebrow.c ****         *  comparemode:  The new compare mode for the PWM output. Use the compare types
 320:Generated_Source\PSoC5/LeftEyebrow.c ****         *                defined in the H file as input arguments.
ARM GAS  C:\Users\jon\AppData\Local\Temp\ccMjDaHk.s 			page 8


 321:Generated_Source\PSoC5/LeftEyebrow.c ****         *
 322:Generated_Source\PSoC5/LeftEyebrow.c ****         * Return:
 323:Generated_Source\PSoC5/LeftEyebrow.c ****         *  None
 324:Generated_Source\PSoC5/LeftEyebrow.c ****         *
 325:Generated_Source\PSoC5/LeftEyebrow.c ****         *******************************************************************************/
 326:Generated_Source\PSoC5/LeftEyebrow.c ****         void LeftEyebrow_SetCompareMode1(uint8 comparemode) 
 327:Generated_Source\PSoC5/LeftEyebrow.c ****         {
 328:Generated_Source\PSoC5/LeftEyebrow.c ****             #if(0 != LeftEyebrow_CTRL_CMPMODE1_SHIFT)
 329:Generated_Source\PSoC5/LeftEyebrow.c ****                 uint8 comparemodemasked = ((uint8)((uint8)comparemode << LeftEyebrow_CTRL_CMPMODE1_
 330:Generated_Source\PSoC5/LeftEyebrow.c ****                                            LeftEyebrow_CTRL_CMPMODE1_MASK;
 331:Generated_Source\PSoC5/LeftEyebrow.c ****             #else
 332:Generated_Source\PSoC5/LeftEyebrow.c ****                 uint8 comparemodemasked = comparemode & LeftEyebrow_CTRL_CMPMODE1_MASK;
 333:Generated_Source\PSoC5/LeftEyebrow.c ****             #endif /* (0 != LeftEyebrow_CTRL_CMPMODE1_SHIFT) */
 334:Generated_Source\PSoC5/LeftEyebrow.c **** 
 335:Generated_Source\PSoC5/LeftEyebrow.c ****             #if (LeftEyebrow_UseControl)
 336:Generated_Source\PSoC5/LeftEyebrow.c ****                 LeftEyebrow_CONTROL &= ((uint8)(~LeftEyebrow_CTRL_CMPMODE1_MASK)); /*Clear existing
 337:Generated_Source\PSoC5/LeftEyebrow.c ****                 LeftEyebrow_CONTROL |= comparemodemasked;
 338:Generated_Source\PSoC5/LeftEyebrow.c ****             #endif /* (LeftEyebrow_UseControl) */
 339:Generated_Source\PSoC5/LeftEyebrow.c ****         }
 340:Generated_Source\PSoC5/LeftEyebrow.c ****     #endif /* LeftEyebrow_CompareMode1SW */
 341:Generated_Source\PSoC5/LeftEyebrow.c **** 
 342:Generated_Source\PSoC5/LeftEyebrow.c **** #if (LeftEyebrow_CompareMode2SW)
 343:Generated_Source\PSoC5/LeftEyebrow.c **** 
 344:Generated_Source\PSoC5/LeftEyebrow.c **** 
 345:Generated_Source\PSoC5/LeftEyebrow.c ****     /*******************************************************************************
 346:Generated_Source\PSoC5/LeftEyebrow.c ****     * Function Name: LeftEyebrow_SetCompareMode2
 347:Generated_Source\PSoC5/LeftEyebrow.c ****     ********************************************************************************
 348:Generated_Source\PSoC5/LeftEyebrow.c ****     *
 349:Generated_Source\PSoC5/LeftEyebrow.c ****     * Summary:
 350:Generated_Source\PSoC5/LeftEyebrow.c ****     *  This function writes the Compare Mode for the pwm or pwm2 output
 351:Generated_Source\PSoC5/LeftEyebrow.c ****     *
 352:Generated_Source\PSoC5/LeftEyebrow.c ****     * Parameters:
 353:Generated_Source\PSoC5/LeftEyebrow.c ****     *  comparemode:  The new compare mode for the PWM output. Use the compare types
 354:Generated_Source\PSoC5/LeftEyebrow.c ****     *                defined in the H file as input arguments.
 355:Generated_Source\PSoC5/LeftEyebrow.c ****     *
 356:Generated_Source\PSoC5/LeftEyebrow.c ****     * Return:
 357:Generated_Source\PSoC5/LeftEyebrow.c ****     *  None
 358:Generated_Source\PSoC5/LeftEyebrow.c ****     *
 359:Generated_Source\PSoC5/LeftEyebrow.c ****     *******************************************************************************/
 360:Generated_Source\PSoC5/LeftEyebrow.c ****     void LeftEyebrow_SetCompareMode2(uint8 comparemode) 
 361:Generated_Source\PSoC5/LeftEyebrow.c ****     {
 362:Generated_Source\PSoC5/LeftEyebrow.c **** 
 363:Generated_Source\PSoC5/LeftEyebrow.c ****         #if(0 != LeftEyebrow_CTRL_CMPMODE2_SHIFT)
 364:Generated_Source\PSoC5/LeftEyebrow.c ****             uint8 comparemodemasked = ((uint8)((uint8)comparemode << LeftEyebrow_CTRL_CMPMODE2_SHIF
 365:Generated_Source\PSoC5/LeftEyebrow.c ****                                                  LeftEyebrow_CTRL_CMPMODE2_MASK;
 366:Generated_Source\PSoC5/LeftEyebrow.c ****         #else
 367:Generated_Source\PSoC5/LeftEyebrow.c ****             uint8 comparemodemasked = comparemode & LeftEyebrow_CTRL_CMPMODE2_MASK;
 368:Generated_Source\PSoC5/LeftEyebrow.c ****         #endif /* (0 != LeftEyebrow_CTRL_CMPMODE2_SHIFT) */
 369:Generated_Source\PSoC5/LeftEyebrow.c **** 
 370:Generated_Source\PSoC5/LeftEyebrow.c ****         #if (LeftEyebrow_UseControl)
 371:Generated_Source\PSoC5/LeftEyebrow.c ****             LeftEyebrow_CONTROL &= ((uint8)(~LeftEyebrow_CTRL_CMPMODE2_MASK)); /*Clear existing mod
 372:Generated_Source\PSoC5/LeftEyebrow.c ****             LeftEyebrow_CONTROL |= comparemodemasked;
 373:Generated_Source\PSoC5/LeftEyebrow.c ****         #endif /* (LeftEyebrow_UseControl) */
 374:Generated_Source\PSoC5/LeftEyebrow.c ****     }
 375:Generated_Source\PSoC5/LeftEyebrow.c ****     #endif /*LeftEyebrow_CompareMode2SW */
 376:Generated_Source\PSoC5/LeftEyebrow.c **** 
 377:Generated_Source\PSoC5/LeftEyebrow.c **** #endif /* UseOneCompareMode */
ARM GAS  C:\Users\jon\AppData\Local\Temp\ccMjDaHk.s 			page 9


 378:Generated_Source\PSoC5/LeftEyebrow.c **** 
 379:Generated_Source\PSoC5/LeftEyebrow.c **** 
 380:Generated_Source\PSoC5/LeftEyebrow.c **** #if (!LeftEyebrow_UsingFixedFunction)
 381:Generated_Source\PSoC5/LeftEyebrow.c **** 
 382:Generated_Source\PSoC5/LeftEyebrow.c **** 
 383:Generated_Source\PSoC5/LeftEyebrow.c ****     /*******************************************************************************
 384:Generated_Source\PSoC5/LeftEyebrow.c ****     * Function Name: LeftEyebrow_WriteCounter
 385:Generated_Source\PSoC5/LeftEyebrow.c ****     ********************************************************************************
 386:Generated_Source\PSoC5/LeftEyebrow.c ****     *
 387:Generated_Source\PSoC5/LeftEyebrow.c ****     * Summary:
 388:Generated_Source\PSoC5/LeftEyebrow.c ****     *  Writes a new counter value directly to the counter register. This will be
 389:Generated_Source\PSoC5/LeftEyebrow.c ****     *  implemented for that currently running period and only that period. This API
 390:Generated_Source\PSoC5/LeftEyebrow.c ****     *  is valid only for UDB implementation and not available for fixed function
 391:Generated_Source\PSoC5/LeftEyebrow.c ****     *  PWM implementation.
 392:Generated_Source\PSoC5/LeftEyebrow.c ****     *
 393:Generated_Source\PSoC5/LeftEyebrow.c ****     * Parameters:
 394:Generated_Source\PSoC5/LeftEyebrow.c ****     *  counter:  The period new period counter value.
 395:Generated_Source\PSoC5/LeftEyebrow.c ****     *
 396:Generated_Source\PSoC5/LeftEyebrow.c ****     * Return:
 397:Generated_Source\PSoC5/LeftEyebrow.c ****     *  None
 398:Generated_Source\PSoC5/LeftEyebrow.c ****     *
 399:Generated_Source\PSoC5/LeftEyebrow.c ****     * Side Effects:
 400:Generated_Source\PSoC5/LeftEyebrow.c ****     *  The PWM Period will be reloaded when a counter value will be a zero
 401:Generated_Source\PSoC5/LeftEyebrow.c ****     *
 402:Generated_Source\PSoC5/LeftEyebrow.c ****     *******************************************************************************/
 403:Generated_Source\PSoC5/LeftEyebrow.c ****     void LeftEyebrow_WriteCounter(uint16 counter) \
 404:Generated_Source\PSoC5/LeftEyebrow.c ****                                        
 405:Generated_Source\PSoC5/LeftEyebrow.c ****     {
  80              		.loc 1 405 0
  81              		.cfi_startproc
  82              		@ args = 0, pretend = 0, frame = 0
  83              		@ frame_needed = 0, uses_anonymous_args = 0
  84              		@ link register save eliminated.
  85              	.LVL0:
 406:Generated_Source\PSoC5/LeftEyebrow.c ****         CY_SET_REG16(LeftEyebrow_COUNTER_LSB_PTR, counter);
  86              		.loc 1 406 0
  87 0000 014B     		ldr	r3, .L8
  88 0002 1880     		strh	r0, [r3]	@ movhi
  89 0004 7047     		bx	lr
  90              	.L9:
  91 0006 00BF     		.align	2
  92              	.L8:
  93 0008 14680040 		.word	1073768468
  94              		.cfi_endproc
  95              	.LFE4:
  96              		.size	LeftEyebrow_WriteCounter, .-LeftEyebrow_WriteCounter
  97              		.section	.text.LeftEyebrow_ReadCounter,"ax",%progbits
  98              		.align	1
  99              		.global	LeftEyebrow_ReadCounter
 100              		.thumb
 101              		.thumb_func
 102              		.type	LeftEyebrow_ReadCounter, %function
 103              	LeftEyebrow_ReadCounter:
 104              	.LFB5:
 407:Generated_Source\PSoC5/LeftEyebrow.c ****     }
 408:Generated_Source\PSoC5/LeftEyebrow.c **** 
 409:Generated_Source\PSoC5/LeftEyebrow.c **** 
ARM GAS  C:\Users\jon\AppData\Local\Temp\ccMjDaHk.s 			page 10


 410:Generated_Source\PSoC5/LeftEyebrow.c ****     /*******************************************************************************
 411:Generated_Source\PSoC5/LeftEyebrow.c ****     * Function Name: LeftEyebrow_ReadCounter
 412:Generated_Source\PSoC5/LeftEyebrow.c ****     ********************************************************************************
 413:Generated_Source\PSoC5/LeftEyebrow.c ****     *
 414:Generated_Source\PSoC5/LeftEyebrow.c ****     * Summary:
 415:Generated_Source\PSoC5/LeftEyebrow.c ****     *  This function returns the current value of the counter.  It doesn't matter
 416:Generated_Source\PSoC5/LeftEyebrow.c ****     *  if the counter is enabled or running.
 417:Generated_Source\PSoC5/LeftEyebrow.c ****     *
 418:Generated_Source\PSoC5/LeftEyebrow.c ****     * Parameters:
 419:Generated_Source\PSoC5/LeftEyebrow.c ****     *  None
 420:Generated_Source\PSoC5/LeftEyebrow.c ****     *
 421:Generated_Source\PSoC5/LeftEyebrow.c ****     * Return:
 422:Generated_Source\PSoC5/LeftEyebrow.c ****     *  The current value of the counter.
 423:Generated_Source\PSoC5/LeftEyebrow.c ****     *
 424:Generated_Source\PSoC5/LeftEyebrow.c ****     *******************************************************************************/
 425:Generated_Source\PSoC5/LeftEyebrow.c ****     uint16 LeftEyebrow_ReadCounter(void) 
 426:Generated_Source\PSoC5/LeftEyebrow.c ****     {
 105              		.loc 1 426 0
 106              		.cfi_startproc
 107              		@ args = 0, pretend = 0, frame = 0
 108              		@ frame_needed = 0, uses_anonymous_args = 0
 109              		@ link register save eliminated.
 427:Generated_Source\PSoC5/LeftEyebrow.c ****         /* Force capture by reading Accumulator */
 428:Generated_Source\PSoC5/LeftEyebrow.c ****         /* Must first do a software capture to be able to read the counter */
 429:Generated_Source\PSoC5/LeftEyebrow.c ****         /* It is up to the user code to make sure there isn't already captured data in the FIFO */
 430:Generated_Source\PSoC5/LeftEyebrow.c ****           (void)CY_GET_REG8(LeftEyebrow_COUNTERCAP_LSB_PTR_8BIT);
 110              		.loc 1 430 0
 111 0000 024B     		ldr	r3, .L11
 112 0002 1B78     		ldrb	r3, [r3]	@ zero_extendqisi2
 431:Generated_Source\PSoC5/LeftEyebrow.c **** 
 432:Generated_Source\PSoC5/LeftEyebrow.c ****         /* Read the data from the FIFO */
 433:Generated_Source\PSoC5/LeftEyebrow.c ****         return (CY_GET_REG16(LeftEyebrow_CAPTURE_LSB_PTR));
 113              		.loc 1 433 0
 114 0004 024B     		ldr	r3, .L11+4
 115 0006 1888     		ldrh	r0, [r3]
 434:Generated_Source\PSoC5/LeftEyebrow.c ****     }
 116              		.loc 1 434 0
 117 0008 80B2     		uxth	r0, r0
 118 000a 7047     		bx	lr
 119              	.L12:
 120              		.align	2
 121              	.L11:
 122 000c 1A640040 		.word	1073767450
 123 0010 B4680040 		.word	1073768628
 124              		.cfi_endproc
 125              	.LFE5:
 126              		.size	LeftEyebrow_ReadCounter, .-LeftEyebrow_ReadCounter
 127              		.section	.text.LeftEyebrow_ClearFIFO,"ax",%progbits
 128              		.align	1
 129              		.global	LeftEyebrow_ClearFIFO
 130              		.thumb
 131              		.thumb_func
 132              		.type	LeftEyebrow_ClearFIFO, %function
 133              	LeftEyebrow_ClearFIFO:
 134              	.LFB6:
 435:Generated_Source\PSoC5/LeftEyebrow.c **** 
 436:Generated_Source\PSoC5/LeftEyebrow.c ****     #if (LeftEyebrow_UseStatus)
ARM GAS  C:\Users\jon\AppData\Local\Temp\ccMjDaHk.s 			page 11


 437:Generated_Source\PSoC5/LeftEyebrow.c **** 
 438:Generated_Source\PSoC5/LeftEyebrow.c **** 
 439:Generated_Source\PSoC5/LeftEyebrow.c ****         /*******************************************************************************
 440:Generated_Source\PSoC5/LeftEyebrow.c ****         * Function Name: LeftEyebrow_ClearFIFO
 441:Generated_Source\PSoC5/LeftEyebrow.c ****         ********************************************************************************
 442:Generated_Source\PSoC5/LeftEyebrow.c ****         *
 443:Generated_Source\PSoC5/LeftEyebrow.c ****         * Summary:
 444:Generated_Source\PSoC5/LeftEyebrow.c ****         *  This function clears all capture data from the capture FIFO
 445:Generated_Source\PSoC5/LeftEyebrow.c ****         *
 446:Generated_Source\PSoC5/LeftEyebrow.c ****         * Parameters:
 447:Generated_Source\PSoC5/LeftEyebrow.c ****         *  None
 448:Generated_Source\PSoC5/LeftEyebrow.c ****         *
 449:Generated_Source\PSoC5/LeftEyebrow.c ****         * Return:
 450:Generated_Source\PSoC5/LeftEyebrow.c ****         *  None
 451:Generated_Source\PSoC5/LeftEyebrow.c ****         *
 452:Generated_Source\PSoC5/LeftEyebrow.c ****         *******************************************************************************/
 453:Generated_Source\PSoC5/LeftEyebrow.c ****         void LeftEyebrow_ClearFIFO(void) 
 454:Generated_Source\PSoC5/LeftEyebrow.c ****         {
 135              		.loc 1 454 0
 136              		.cfi_startproc
 137              		@ args = 0, pretend = 0, frame = 0
 138              		@ frame_needed = 0, uses_anonymous_args = 0
 139              		@ link register save eliminated.
 140              	.LBB16:
 141              	.LBB17:
 455:Generated_Source\PSoC5/LeftEyebrow.c ****             while(0u != (LeftEyebrow_ReadStatusRegister() & LeftEyebrow_STATUS_FIFONEMPTY))
 456:Generated_Source\PSoC5/LeftEyebrow.c ****             {
 457:Generated_Source\PSoC5/LeftEyebrow.c ****                 (void)LeftEyebrow_ReadCapture();
 458:Generated_Source\PSoC5/LeftEyebrow.c ****             }
 459:Generated_Source\PSoC5/LeftEyebrow.c ****         }
 460:Generated_Source\PSoC5/LeftEyebrow.c **** 
 461:Generated_Source\PSoC5/LeftEyebrow.c ****     #endif /* LeftEyebrow_UseStatus */
 462:Generated_Source\PSoC5/LeftEyebrow.c **** 
 463:Generated_Source\PSoC5/LeftEyebrow.c **** #endif /* !LeftEyebrow_UsingFixedFunction */
 464:Generated_Source\PSoC5/LeftEyebrow.c **** 
 465:Generated_Source\PSoC5/LeftEyebrow.c **** 
 466:Generated_Source\PSoC5/LeftEyebrow.c **** /*******************************************************************************
 467:Generated_Source\PSoC5/LeftEyebrow.c **** * Function Name: LeftEyebrow_WritePeriod
 468:Generated_Source\PSoC5/LeftEyebrow.c **** ********************************************************************************
 469:Generated_Source\PSoC5/LeftEyebrow.c **** *
 470:Generated_Source\PSoC5/LeftEyebrow.c **** * Summary:
 471:Generated_Source\PSoC5/LeftEyebrow.c **** *  This function is used to change the period of the counter.  The new period
 472:Generated_Source\PSoC5/LeftEyebrow.c **** *  will be loaded the next time terminal count is detected.
 473:Generated_Source\PSoC5/LeftEyebrow.c **** *
 474:Generated_Source\PSoC5/LeftEyebrow.c **** * Parameters:
 475:Generated_Source\PSoC5/LeftEyebrow.c **** *  period:  Period value. May be between 1 and (2^Resolution)-1.  A value of 0
 476:Generated_Source\PSoC5/LeftEyebrow.c **** *           will result in the counter remaining at zero.
 477:Generated_Source\PSoC5/LeftEyebrow.c **** *
 478:Generated_Source\PSoC5/LeftEyebrow.c **** * Return:
 479:Generated_Source\PSoC5/LeftEyebrow.c **** *  None
 480:Generated_Source\PSoC5/LeftEyebrow.c **** *
 481:Generated_Source\PSoC5/LeftEyebrow.c **** *******************************************************************************/
 482:Generated_Source\PSoC5/LeftEyebrow.c **** void LeftEyebrow_WritePeriod(uint16 period) 
 483:Generated_Source\PSoC5/LeftEyebrow.c **** {
 484:Generated_Source\PSoC5/LeftEyebrow.c ****     #if(LeftEyebrow_UsingFixedFunction)
 485:Generated_Source\PSoC5/LeftEyebrow.c ****         CY_SET_REG16(LeftEyebrow_PERIOD_LSB_PTR, (uint16)period);
 486:Generated_Source\PSoC5/LeftEyebrow.c ****     #else
ARM GAS  C:\Users\jon\AppData\Local\Temp\ccMjDaHk.s 			page 12


 487:Generated_Source\PSoC5/LeftEyebrow.c ****         CY_SET_REG16(LeftEyebrow_PERIOD_LSB_PTR, period);
 488:Generated_Source\PSoC5/LeftEyebrow.c ****     #endif /* (LeftEyebrow_UsingFixedFunction) */
 489:Generated_Source\PSoC5/LeftEyebrow.c **** }
 490:Generated_Source\PSoC5/LeftEyebrow.c **** 
 491:Generated_Source\PSoC5/LeftEyebrow.c **** #if (LeftEyebrow_UseOneCompareMode)
 492:Generated_Source\PSoC5/LeftEyebrow.c **** 
 493:Generated_Source\PSoC5/LeftEyebrow.c **** 
 494:Generated_Source\PSoC5/LeftEyebrow.c ****     /*******************************************************************************
 495:Generated_Source\PSoC5/LeftEyebrow.c ****     * Function Name: LeftEyebrow_WriteCompare
 496:Generated_Source\PSoC5/LeftEyebrow.c ****     ********************************************************************************
 497:Generated_Source\PSoC5/LeftEyebrow.c ****     *
 498:Generated_Source\PSoC5/LeftEyebrow.c ****     * Summary:
 499:Generated_Source\PSoC5/LeftEyebrow.c ****     *  This funtion is used to change the compare1 value when the PWM is in Dither
 500:Generated_Source\PSoC5/LeftEyebrow.c ****     *  mode. The compare output will reflect the new value on the next UDB clock.
 501:Generated_Source\PSoC5/LeftEyebrow.c ****     *  The compare output will be driven high when the present counter value is
 502:Generated_Source\PSoC5/LeftEyebrow.c ****     *  compared to the compare value based on the compare mode defined in
 503:Generated_Source\PSoC5/LeftEyebrow.c ****     *  Dither Mode.
 504:Generated_Source\PSoC5/LeftEyebrow.c ****     *
 505:Generated_Source\PSoC5/LeftEyebrow.c ****     * Parameters:
 506:Generated_Source\PSoC5/LeftEyebrow.c ****     *  compare:  New compare value.
 507:Generated_Source\PSoC5/LeftEyebrow.c ****     *
 508:Generated_Source\PSoC5/LeftEyebrow.c ****     * Return:
 509:Generated_Source\PSoC5/LeftEyebrow.c ****     *  None
 510:Generated_Source\PSoC5/LeftEyebrow.c ****     *
 511:Generated_Source\PSoC5/LeftEyebrow.c ****     * Side Effects:
 512:Generated_Source\PSoC5/LeftEyebrow.c ****     *  This function is only available if the PWM mode parameter is set to
 513:Generated_Source\PSoC5/LeftEyebrow.c ****     *  Dither Mode, Center Aligned Mode or One Output Mode
 514:Generated_Source\PSoC5/LeftEyebrow.c ****     *
 515:Generated_Source\PSoC5/LeftEyebrow.c ****     *******************************************************************************/
 516:Generated_Source\PSoC5/LeftEyebrow.c ****     void LeftEyebrow_WriteCompare(uint16 compare) \
 517:Generated_Source\PSoC5/LeftEyebrow.c ****                                        
 518:Generated_Source\PSoC5/LeftEyebrow.c ****     {
 519:Generated_Source\PSoC5/LeftEyebrow.c ****         #if(LeftEyebrow_UsingFixedFunction)
 520:Generated_Source\PSoC5/LeftEyebrow.c ****             CY_SET_REG16(LeftEyebrow_COMPARE1_LSB_PTR, (uint16)compare);
 521:Generated_Source\PSoC5/LeftEyebrow.c ****         #else
 522:Generated_Source\PSoC5/LeftEyebrow.c ****             CY_SET_REG16(LeftEyebrow_COMPARE1_LSB_PTR, compare);
 523:Generated_Source\PSoC5/LeftEyebrow.c ****         #endif /* (LeftEyebrow_UsingFixedFunction) */
 524:Generated_Source\PSoC5/LeftEyebrow.c **** 
 525:Generated_Source\PSoC5/LeftEyebrow.c ****         #if (LeftEyebrow_PWMMode == LeftEyebrow__B_PWM__DITHER)
 526:Generated_Source\PSoC5/LeftEyebrow.c ****             #if(LeftEyebrow_UsingFixedFunction)
 527:Generated_Source\PSoC5/LeftEyebrow.c ****                 CY_SET_REG16(LeftEyebrow_COMPARE2_LSB_PTR, (uint16)(compare + 1u));
 528:Generated_Source\PSoC5/LeftEyebrow.c ****             #else
 529:Generated_Source\PSoC5/LeftEyebrow.c ****                 CY_SET_REG16(LeftEyebrow_COMPARE2_LSB_PTR, (compare + 1u));
 530:Generated_Source\PSoC5/LeftEyebrow.c ****             #endif /* (LeftEyebrow_UsingFixedFunction) */
 531:Generated_Source\PSoC5/LeftEyebrow.c ****         #endif /* (LeftEyebrow_PWMMode == LeftEyebrow__B_PWM__DITHER) */
 532:Generated_Source\PSoC5/LeftEyebrow.c ****     }
 533:Generated_Source\PSoC5/LeftEyebrow.c **** 
 534:Generated_Source\PSoC5/LeftEyebrow.c **** 
 535:Generated_Source\PSoC5/LeftEyebrow.c **** #else
 536:Generated_Source\PSoC5/LeftEyebrow.c **** 
 537:Generated_Source\PSoC5/LeftEyebrow.c **** 
 538:Generated_Source\PSoC5/LeftEyebrow.c ****     /*******************************************************************************
 539:Generated_Source\PSoC5/LeftEyebrow.c ****     * Function Name: LeftEyebrow_WriteCompare1
 540:Generated_Source\PSoC5/LeftEyebrow.c ****     ********************************************************************************
 541:Generated_Source\PSoC5/LeftEyebrow.c ****     *
 542:Generated_Source\PSoC5/LeftEyebrow.c ****     * Summary:
 543:Generated_Source\PSoC5/LeftEyebrow.c ****     *  This funtion is used to change the compare1 value.  The compare output will
ARM GAS  C:\Users\jon\AppData\Local\Temp\ccMjDaHk.s 			page 13


 544:Generated_Source\PSoC5/LeftEyebrow.c ****     *  reflect the new value on the next UDB clock.  The compare output will be
 545:Generated_Source\PSoC5/LeftEyebrow.c ****     *  driven high when the present counter value is less than or less than or
 546:Generated_Source\PSoC5/LeftEyebrow.c ****     *  equal to the compare register, depending on the mode.
 547:Generated_Source\PSoC5/LeftEyebrow.c ****     *
 548:Generated_Source\PSoC5/LeftEyebrow.c ****     * Parameters:
 549:Generated_Source\PSoC5/LeftEyebrow.c ****     *  compare:  New compare value.
 550:Generated_Source\PSoC5/LeftEyebrow.c ****     *
 551:Generated_Source\PSoC5/LeftEyebrow.c ****     * Return:
 552:Generated_Source\PSoC5/LeftEyebrow.c ****     *  None
 553:Generated_Source\PSoC5/LeftEyebrow.c ****     *
 554:Generated_Source\PSoC5/LeftEyebrow.c ****     *******************************************************************************/
 555:Generated_Source\PSoC5/LeftEyebrow.c ****     void LeftEyebrow_WriteCompare1(uint16 compare) \
 556:Generated_Source\PSoC5/LeftEyebrow.c ****                                         
 557:Generated_Source\PSoC5/LeftEyebrow.c ****     {
 558:Generated_Source\PSoC5/LeftEyebrow.c ****         #if(LeftEyebrow_UsingFixedFunction)
 559:Generated_Source\PSoC5/LeftEyebrow.c ****             CY_SET_REG16(LeftEyebrow_COMPARE1_LSB_PTR, (uint16)compare);
 560:Generated_Source\PSoC5/LeftEyebrow.c ****         #else
 561:Generated_Source\PSoC5/LeftEyebrow.c ****             CY_SET_REG16(LeftEyebrow_COMPARE1_LSB_PTR, compare);
 562:Generated_Source\PSoC5/LeftEyebrow.c ****         #endif /* (LeftEyebrow_UsingFixedFunction) */
 563:Generated_Source\PSoC5/LeftEyebrow.c ****     }
 564:Generated_Source\PSoC5/LeftEyebrow.c **** 
 565:Generated_Source\PSoC5/LeftEyebrow.c **** 
 566:Generated_Source\PSoC5/LeftEyebrow.c ****     /*******************************************************************************
 567:Generated_Source\PSoC5/LeftEyebrow.c ****     * Function Name: LeftEyebrow_WriteCompare2
 568:Generated_Source\PSoC5/LeftEyebrow.c ****     ********************************************************************************
 569:Generated_Source\PSoC5/LeftEyebrow.c ****     *
 570:Generated_Source\PSoC5/LeftEyebrow.c ****     * Summary:
 571:Generated_Source\PSoC5/LeftEyebrow.c ****     *  This funtion is used to change the compare value, for compare1 output.
 572:Generated_Source\PSoC5/LeftEyebrow.c ****     *  The compare output will reflect the new value on the next UDB clock.
 573:Generated_Source\PSoC5/LeftEyebrow.c ****     *  The compare output will be driven high when the present counter value is
 574:Generated_Source\PSoC5/LeftEyebrow.c ****     *  less than or less than or equal to the compare register, depending on the
 575:Generated_Source\PSoC5/LeftEyebrow.c ****     *  mode.
 576:Generated_Source\PSoC5/LeftEyebrow.c ****     *
 577:Generated_Source\PSoC5/LeftEyebrow.c ****     * Parameters:
 578:Generated_Source\PSoC5/LeftEyebrow.c ****     *  compare:  New compare value.
 579:Generated_Source\PSoC5/LeftEyebrow.c ****     *
 580:Generated_Source\PSoC5/LeftEyebrow.c ****     * Return:
 581:Generated_Source\PSoC5/LeftEyebrow.c ****     *  None
 582:Generated_Source\PSoC5/LeftEyebrow.c ****     *
 583:Generated_Source\PSoC5/LeftEyebrow.c ****     *******************************************************************************/
 584:Generated_Source\PSoC5/LeftEyebrow.c ****     void LeftEyebrow_WriteCompare2(uint16 compare) \
 585:Generated_Source\PSoC5/LeftEyebrow.c ****                                         
 586:Generated_Source\PSoC5/LeftEyebrow.c ****     {
 587:Generated_Source\PSoC5/LeftEyebrow.c ****         #if(LeftEyebrow_UsingFixedFunction)
 588:Generated_Source\PSoC5/LeftEyebrow.c ****             CY_SET_REG16(LeftEyebrow_COMPARE2_LSB_PTR, compare);
 589:Generated_Source\PSoC5/LeftEyebrow.c ****         #else
 590:Generated_Source\PSoC5/LeftEyebrow.c ****             CY_SET_REG16(LeftEyebrow_COMPARE2_LSB_PTR, compare);
 591:Generated_Source\PSoC5/LeftEyebrow.c ****         #endif /* (LeftEyebrow_UsingFixedFunction) */
 592:Generated_Source\PSoC5/LeftEyebrow.c ****     }
 593:Generated_Source\PSoC5/LeftEyebrow.c **** #endif /* UseOneCompareMode */
 594:Generated_Source\PSoC5/LeftEyebrow.c **** 
 595:Generated_Source\PSoC5/LeftEyebrow.c **** #if (LeftEyebrow_DeadBandUsed)
 596:Generated_Source\PSoC5/LeftEyebrow.c **** 
 597:Generated_Source\PSoC5/LeftEyebrow.c **** 
 598:Generated_Source\PSoC5/LeftEyebrow.c ****     /*******************************************************************************
 599:Generated_Source\PSoC5/LeftEyebrow.c ****     * Function Name: LeftEyebrow_WriteDeadTime
 600:Generated_Source\PSoC5/LeftEyebrow.c ****     ********************************************************************************
ARM GAS  C:\Users\jon\AppData\Local\Temp\ccMjDaHk.s 			page 14


 601:Generated_Source\PSoC5/LeftEyebrow.c ****     *
 602:Generated_Source\PSoC5/LeftEyebrow.c ****     * Summary:
 603:Generated_Source\PSoC5/LeftEyebrow.c ****     *  This function writes the dead-band counts to the corresponding register
 604:Generated_Source\PSoC5/LeftEyebrow.c ****     *
 605:Generated_Source\PSoC5/LeftEyebrow.c ****     * Parameters:
 606:Generated_Source\PSoC5/LeftEyebrow.c ****     *  deadtime:  Number of counts for dead time
 607:Generated_Source\PSoC5/LeftEyebrow.c ****     *
 608:Generated_Source\PSoC5/LeftEyebrow.c ****     * Return:
 609:Generated_Source\PSoC5/LeftEyebrow.c ****     *  None
 610:Generated_Source\PSoC5/LeftEyebrow.c ****     *
 611:Generated_Source\PSoC5/LeftEyebrow.c ****     *******************************************************************************/
 612:Generated_Source\PSoC5/LeftEyebrow.c ****     void LeftEyebrow_WriteDeadTime(uint8 deadtime) 
 613:Generated_Source\PSoC5/LeftEyebrow.c ****     {
 614:Generated_Source\PSoC5/LeftEyebrow.c ****         /* If using the Dead Band 1-255 mode then just write the register */
 615:Generated_Source\PSoC5/LeftEyebrow.c ****         #if(!LeftEyebrow_DeadBand2_4)
 616:Generated_Source\PSoC5/LeftEyebrow.c ****             CY_SET_REG8(LeftEyebrow_DEADBAND_COUNT_PTR, deadtime);
 617:Generated_Source\PSoC5/LeftEyebrow.c ****         #else
 618:Generated_Source\PSoC5/LeftEyebrow.c ****             /* Otherwise the data has to be masked and offset */
 619:Generated_Source\PSoC5/LeftEyebrow.c ****             /* Clear existing data */
 620:Generated_Source\PSoC5/LeftEyebrow.c ****             LeftEyebrow_DEADBAND_COUNT &= ((uint8)(~LeftEyebrow_DEADBAND_COUNT_MASK));
 621:Generated_Source\PSoC5/LeftEyebrow.c **** 
 622:Generated_Source\PSoC5/LeftEyebrow.c ****             /* Set new dead time */
 623:Generated_Source\PSoC5/LeftEyebrow.c ****             #if(LeftEyebrow_DEADBAND_COUNT_SHIFT)
 624:Generated_Source\PSoC5/LeftEyebrow.c ****                 LeftEyebrow_DEADBAND_COUNT |= ((uint8)((uint8)deadtime << LeftEyebrow_DEADBAND_COUN
 625:Generated_Source\PSoC5/LeftEyebrow.c ****                                                     LeftEyebrow_DEADBAND_COUNT_MASK;
 626:Generated_Source\PSoC5/LeftEyebrow.c ****             #else
 627:Generated_Source\PSoC5/LeftEyebrow.c ****                 LeftEyebrow_DEADBAND_COUNT |= deadtime & LeftEyebrow_DEADBAND_COUNT_MASK;
 628:Generated_Source\PSoC5/LeftEyebrow.c ****             #endif /* (LeftEyebrow_DEADBAND_COUNT_SHIFT) */
 629:Generated_Source\PSoC5/LeftEyebrow.c **** 
 630:Generated_Source\PSoC5/LeftEyebrow.c ****         #endif /* (!LeftEyebrow_DeadBand2_4) */
 631:Generated_Source\PSoC5/LeftEyebrow.c ****     }
 632:Generated_Source\PSoC5/LeftEyebrow.c **** 
 633:Generated_Source\PSoC5/LeftEyebrow.c **** 
 634:Generated_Source\PSoC5/LeftEyebrow.c ****     /*******************************************************************************
 635:Generated_Source\PSoC5/LeftEyebrow.c ****     * Function Name: LeftEyebrow_ReadDeadTime
 636:Generated_Source\PSoC5/LeftEyebrow.c ****     ********************************************************************************
 637:Generated_Source\PSoC5/LeftEyebrow.c ****     *
 638:Generated_Source\PSoC5/LeftEyebrow.c ****     * Summary:
 639:Generated_Source\PSoC5/LeftEyebrow.c ****     *  This function reads the dead-band counts from the corresponding register
 640:Generated_Source\PSoC5/LeftEyebrow.c ****     *
 641:Generated_Source\PSoC5/LeftEyebrow.c ****     * Parameters:
 642:Generated_Source\PSoC5/LeftEyebrow.c ****     *  None
 643:Generated_Source\PSoC5/LeftEyebrow.c ****     *
 644:Generated_Source\PSoC5/LeftEyebrow.c ****     * Return:
 645:Generated_Source\PSoC5/LeftEyebrow.c ****     *  Dead Band Counts
 646:Generated_Source\PSoC5/LeftEyebrow.c ****     *
 647:Generated_Source\PSoC5/LeftEyebrow.c ****     *******************************************************************************/
 648:Generated_Source\PSoC5/LeftEyebrow.c ****     uint8 LeftEyebrow_ReadDeadTime(void) 
 649:Generated_Source\PSoC5/LeftEyebrow.c ****     {
 650:Generated_Source\PSoC5/LeftEyebrow.c ****         /* If using the Dead Band 1-255 mode then just read the register */
 651:Generated_Source\PSoC5/LeftEyebrow.c ****         #if(!LeftEyebrow_DeadBand2_4)
 652:Generated_Source\PSoC5/LeftEyebrow.c ****             return (CY_GET_REG8(LeftEyebrow_DEADBAND_COUNT_PTR));
 653:Generated_Source\PSoC5/LeftEyebrow.c ****         #else
 654:Generated_Source\PSoC5/LeftEyebrow.c **** 
 655:Generated_Source\PSoC5/LeftEyebrow.c ****             /* Otherwise the data has to be masked and offset */
 656:Generated_Source\PSoC5/LeftEyebrow.c ****             #if(LeftEyebrow_DEADBAND_COUNT_SHIFT)
 657:Generated_Source\PSoC5/LeftEyebrow.c ****                 return ((uint8)(((uint8)(LeftEyebrow_DEADBAND_COUNT & LeftEyebrow_DEADBAND_COUNT_MA
ARM GAS  C:\Users\jon\AppData\Local\Temp\ccMjDaHk.s 			page 15


 658:Generated_Source\PSoC5/LeftEyebrow.c ****                                                                            LeftEyebrow_DEADBAND_COU
 659:Generated_Source\PSoC5/LeftEyebrow.c ****             #else
 660:Generated_Source\PSoC5/LeftEyebrow.c ****                 return (LeftEyebrow_DEADBAND_COUNT & LeftEyebrow_DEADBAND_COUNT_MASK);
 661:Generated_Source\PSoC5/LeftEyebrow.c ****             #endif /* (LeftEyebrow_DEADBAND_COUNT_SHIFT) */
 662:Generated_Source\PSoC5/LeftEyebrow.c ****         #endif /* (!LeftEyebrow_DeadBand2_4) */
 663:Generated_Source\PSoC5/LeftEyebrow.c ****     }
 664:Generated_Source\PSoC5/LeftEyebrow.c **** #endif /* DeadBandUsed */
 665:Generated_Source\PSoC5/LeftEyebrow.c **** 
 666:Generated_Source\PSoC5/LeftEyebrow.c **** #if (LeftEyebrow_UseStatus || LeftEyebrow_UsingFixedFunction)
 667:Generated_Source\PSoC5/LeftEyebrow.c **** 
 668:Generated_Source\PSoC5/LeftEyebrow.c **** 
 669:Generated_Source\PSoC5/LeftEyebrow.c ****     /*******************************************************************************
 670:Generated_Source\PSoC5/LeftEyebrow.c ****     * Function Name: LeftEyebrow_SetInterruptMode
 671:Generated_Source\PSoC5/LeftEyebrow.c ****     ********************************************************************************
 672:Generated_Source\PSoC5/LeftEyebrow.c ****     *
 673:Generated_Source\PSoC5/LeftEyebrow.c ****     * Summary:
 674:Generated_Source\PSoC5/LeftEyebrow.c ****     *  This function configures the interrupts mask control of theinterrupt
 675:Generated_Source\PSoC5/LeftEyebrow.c ****     *  source status register.
 676:Generated_Source\PSoC5/LeftEyebrow.c ****     *
 677:Generated_Source\PSoC5/LeftEyebrow.c ****     * Parameters:
 678:Generated_Source\PSoC5/LeftEyebrow.c ****     *  uint8 interruptMode: Bit field containing the interrupt sources enabled
 679:Generated_Source\PSoC5/LeftEyebrow.c ****     *
 680:Generated_Source\PSoC5/LeftEyebrow.c ****     * Return:
 681:Generated_Source\PSoC5/LeftEyebrow.c ****     *  None
 682:Generated_Source\PSoC5/LeftEyebrow.c ****     *
 683:Generated_Source\PSoC5/LeftEyebrow.c ****     *******************************************************************************/
 684:Generated_Source\PSoC5/LeftEyebrow.c ****     void LeftEyebrow_SetInterruptMode(uint8 interruptMode) 
 685:Generated_Source\PSoC5/LeftEyebrow.c ****     {
 686:Generated_Source\PSoC5/LeftEyebrow.c ****         CY_SET_REG8(LeftEyebrow_STATUS_MASK_PTR, interruptMode);
 687:Generated_Source\PSoC5/LeftEyebrow.c ****     }
 688:Generated_Source\PSoC5/LeftEyebrow.c **** 
 689:Generated_Source\PSoC5/LeftEyebrow.c **** 
 690:Generated_Source\PSoC5/LeftEyebrow.c ****     /*******************************************************************************
 691:Generated_Source\PSoC5/LeftEyebrow.c ****     * Function Name: LeftEyebrow_ReadStatusRegister
 692:Generated_Source\PSoC5/LeftEyebrow.c ****     ********************************************************************************
 693:Generated_Source\PSoC5/LeftEyebrow.c ****     *
 694:Generated_Source\PSoC5/LeftEyebrow.c ****     * Summary:
 695:Generated_Source\PSoC5/LeftEyebrow.c ****     *  This function returns the current state of the status register.
 696:Generated_Source\PSoC5/LeftEyebrow.c ****     *
 697:Generated_Source\PSoC5/LeftEyebrow.c ****     * Parameters:
 698:Generated_Source\PSoC5/LeftEyebrow.c ****     *  None
 699:Generated_Source\PSoC5/LeftEyebrow.c ****     *
 700:Generated_Source\PSoC5/LeftEyebrow.c ****     * Return:
 701:Generated_Source\PSoC5/LeftEyebrow.c ****     *  uint8 : Current status register value. The status register bits are:
 702:Generated_Source\PSoC5/LeftEyebrow.c ****     *  [7:6] : Unused(0)
 703:Generated_Source\PSoC5/LeftEyebrow.c ****     *  [5]   : Kill event output
 704:Generated_Source\PSoC5/LeftEyebrow.c ****     *  [4]   : FIFO not empty
 705:Generated_Source\PSoC5/LeftEyebrow.c ****     *  [3]   : FIFO full
 706:Generated_Source\PSoC5/LeftEyebrow.c ****     *  [2]   : Terminal count
 707:Generated_Source\PSoC5/LeftEyebrow.c ****     *  [1]   : Compare output 2
 708:Generated_Source\PSoC5/LeftEyebrow.c ****     *  [0]   : Compare output 1
 709:Generated_Source\PSoC5/LeftEyebrow.c ****     *
 710:Generated_Source\PSoC5/LeftEyebrow.c ****     *******************************************************************************/
 711:Generated_Source\PSoC5/LeftEyebrow.c ****     uint8 LeftEyebrow_ReadStatusRegister(void) 
 712:Generated_Source\PSoC5/LeftEyebrow.c ****     {
 713:Generated_Source\PSoC5/LeftEyebrow.c ****         return (CY_GET_REG8(LeftEyebrow_STATUS_PTR));
 142              		.loc 1 713 0
ARM GAS  C:\Users\jon\AppData\Local\Temp\ccMjDaHk.s 			page 16


 143 0000 034A     		ldr	r2, .L18
 144              	.LBE17:
 145              	.LBE16:
 146              	.LBB19:
 147              	.LBB20:
 714:Generated_Source\PSoC5/LeftEyebrow.c ****     }
 715:Generated_Source\PSoC5/LeftEyebrow.c **** 
 716:Generated_Source\PSoC5/LeftEyebrow.c **** #endif /* (LeftEyebrow_UseStatus || LeftEyebrow_UsingFixedFunction) */
 717:Generated_Source\PSoC5/LeftEyebrow.c **** 
 718:Generated_Source\PSoC5/LeftEyebrow.c **** 
 719:Generated_Source\PSoC5/LeftEyebrow.c **** #if (LeftEyebrow_UseControl)
 720:Generated_Source\PSoC5/LeftEyebrow.c **** 
 721:Generated_Source\PSoC5/LeftEyebrow.c **** 
 722:Generated_Source\PSoC5/LeftEyebrow.c ****     /*******************************************************************************
 723:Generated_Source\PSoC5/LeftEyebrow.c ****     * Function Name: LeftEyebrow_ReadControlRegister
 724:Generated_Source\PSoC5/LeftEyebrow.c ****     ********************************************************************************
 725:Generated_Source\PSoC5/LeftEyebrow.c ****     *
 726:Generated_Source\PSoC5/LeftEyebrow.c ****     * Summary:
 727:Generated_Source\PSoC5/LeftEyebrow.c ****     *  Returns the current state of the control register. This API is available
 728:Generated_Source\PSoC5/LeftEyebrow.c ****     *  only if the control register is not removed.
 729:Generated_Source\PSoC5/LeftEyebrow.c ****     *
 730:Generated_Source\PSoC5/LeftEyebrow.c ****     * Parameters:
 731:Generated_Source\PSoC5/LeftEyebrow.c ****     *  None
 732:Generated_Source\PSoC5/LeftEyebrow.c ****     *
 733:Generated_Source\PSoC5/LeftEyebrow.c ****     * Return:
 734:Generated_Source\PSoC5/LeftEyebrow.c ****     *  uint8 : Current control register value
 735:Generated_Source\PSoC5/LeftEyebrow.c ****     *
 736:Generated_Source\PSoC5/LeftEyebrow.c ****     *******************************************************************************/
 737:Generated_Source\PSoC5/LeftEyebrow.c ****     uint8 LeftEyebrow_ReadControlRegister(void) 
 738:Generated_Source\PSoC5/LeftEyebrow.c ****     {
 739:Generated_Source\PSoC5/LeftEyebrow.c ****         uint8 result;
 740:Generated_Source\PSoC5/LeftEyebrow.c **** 
 741:Generated_Source\PSoC5/LeftEyebrow.c ****         result = CY_GET_REG8(LeftEyebrow_CONTROL_PTR);
 742:Generated_Source\PSoC5/LeftEyebrow.c ****         return (result);
 743:Generated_Source\PSoC5/LeftEyebrow.c ****     }
 744:Generated_Source\PSoC5/LeftEyebrow.c **** 
 745:Generated_Source\PSoC5/LeftEyebrow.c **** 
 746:Generated_Source\PSoC5/LeftEyebrow.c ****     /*******************************************************************************
 747:Generated_Source\PSoC5/LeftEyebrow.c ****     * Function Name: LeftEyebrow_WriteControlRegister
 748:Generated_Source\PSoC5/LeftEyebrow.c ****     ********************************************************************************
 749:Generated_Source\PSoC5/LeftEyebrow.c ****     *
 750:Generated_Source\PSoC5/LeftEyebrow.c ****     * Summary:
 751:Generated_Source\PSoC5/LeftEyebrow.c ****     *  Sets the bit field of the control register. This API is available only if
 752:Generated_Source\PSoC5/LeftEyebrow.c ****     *  the control register is not removed.
 753:Generated_Source\PSoC5/LeftEyebrow.c ****     *
 754:Generated_Source\PSoC5/LeftEyebrow.c ****     * Parameters:
 755:Generated_Source\PSoC5/LeftEyebrow.c ****     *  uint8 control: Control register bit field, The status register bits are:
 756:Generated_Source\PSoC5/LeftEyebrow.c ****     *  [7]   : PWM Enable
 757:Generated_Source\PSoC5/LeftEyebrow.c ****     *  [6]   : Reset
 758:Generated_Source\PSoC5/LeftEyebrow.c ****     *  [5:3] : Compare Mode2
 759:Generated_Source\PSoC5/LeftEyebrow.c ****     *  [2:0] : Compare Mode2
 760:Generated_Source\PSoC5/LeftEyebrow.c ****     *
 761:Generated_Source\PSoC5/LeftEyebrow.c ****     * Return:
 762:Generated_Source\PSoC5/LeftEyebrow.c ****     *  None
 763:Generated_Source\PSoC5/LeftEyebrow.c ****     *
 764:Generated_Source\PSoC5/LeftEyebrow.c ****     *******************************************************************************/
 765:Generated_Source\PSoC5/LeftEyebrow.c ****     void LeftEyebrow_WriteControlRegister(uint8 control) 
ARM GAS  C:\Users\jon\AppData\Local\Temp\ccMjDaHk.s 			page 17


 766:Generated_Source\PSoC5/LeftEyebrow.c ****     {
 767:Generated_Source\PSoC5/LeftEyebrow.c ****         CY_SET_REG8(LeftEyebrow_CONTROL_PTR, control);
 768:Generated_Source\PSoC5/LeftEyebrow.c ****     }
 769:Generated_Source\PSoC5/LeftEyebrow.c **** 
 770:Generated_Source\PSoC5/LeftEyebrow.c **** #endif /* (LeftEyebrow_UseControl) */
 771:Generated_Source\PSoC5/LeftEyebrow.c **** 
 772:Generated_Source\PSoC5/LeftEyebrow.c **** 
 773:Generated_Source\PSoC5/LeftEyebrow.c **** #if (!LeftEyebrow_UsingFixedFunction)
 774:Generated_Source\PSoC5/LeftEyebrow.c **** 
 775:Generated_Source\PSoC5/LeftEyebrow.c **** 
 776:Generated_Source\PSoC5/LeftEyebrow.c ****     /*******************************************************************************
 777:Generated_Source\PSoC5/LeftEyebrow.c ****     * Function Name: LeftEyebrow_ReadCapture
 778:Generated_Source\PSoC5/LeftEyebrow.c ****     ********************************************************************************
 779:Generated_Source\PSoC5/LeftEyebrow.c ****     *
 780:Generated_Source\PSoC5/LeftEyebrow.c ****     * Summary:
 781:Generated_Source\PSoC5/LeftEyebrow.c ****     *  Reads the capture value from the capture FIFO.
 782:Generated_Source\PSoC5/LeftEyebrow.c ****     *
 783:Generated_Source\PSoC5/LeftEyebrow.c ****     * Parameters:
 784:Generated_Source\PSoC5/LeftEyebrow.c ****     *  None
 785:Generated_Source\PSoC5/LeftEyebrow.c ****     *
 786:Generated_Source\PSoC5/LeftEyebrow.c ****     * Return:
 787:Generated_Source\PSoC5/LeftEyebrow.c ****     *  uint8/uint16: The current capture value
 788:Generated_Source\PSoC5/LeftEyebrow.c ****     *
 789:Generated_Source\PSoC5/LeftEyebrow.c ****     *******************************************************************************/
 790:Generated_Source\PSoC5/LeftEyebrow.c ****     uint16 LeftEyebrow_ReadCapture(void) 
 791:Generated_Source\PSoC5/LeftEyebrow.c ****     {
 792:Generated_Source\PSoC5/LeftEyebrow.c ****         return (CY_GET_REG16(LeftEyebrow_CAPTURE_LSB_PTR));
 148              		.loc 1 792 0
 149 0002 0449     		ldr	r1, .L18+4
 150              	.L14:
 151              	.LBE20:
 152              	.LBE19:
 153              	.LBB22:
 154              	.LBB18:
 713:Generated_Source\PSoC5/LeftEyebrow.c ****     }
 155              		.loc 1 713 0
 156 0004 1378     		ldrb	r3, [r2]	@ zero_extendqisi2
 157              	.LBE18:
 158              	.LBE22:
 455:Generated_Source\PSoC5/LeftEyebrow.c ****             while(0u != (LeftEyebrow_ReadStatusRegister() & LeftEyebrow_STATUS_FIFONEMPTY))
 159              		.loc 1 455 0
 160 0006 DB06     		lsls	r3, r3, #27
 161 0008 01D5     		bpl	.L17
 162              	.LBB23:
 163              	.LBB21:
 164              		.loc 1 792 0
 165 000a 0B88     		ldrh	r3, [r1]
 166 000c FAE7     		b	.L14
 167              	.L17:
 168              	.LBE21:
 169              	.LBE23:
 459:Generated_Source\PSoC5/LeftEyebrow.c **** 
 170              		.loc 1 459 0
 171 000e 7047     		bx	lr
 172              	.L19:
 173              		.align	2
 174              	.L18:
ARM GAS  C:\Users\jon\AppData\Local\Temp\ccMjDaHk.s 			page 18


 175 0010 6B640040 		.word	1073767531
 176 0014 B4680040 		.word	1073768628
 177              		.cfi_endproc
 178              	.LFE6:
 179              		.size	LeftEyebrow_ClearFIFO, .-LeftEyebrow_ClearFIFO
 180              		.section	.text.LeftEyebrow_Init,"ax",%progbits
 181              		.align	1
 182              		.global	LeftEyebrow_Init
 183              		.thumb
 184              		.thumb_func
 185              		.type	LeftEyebrow_Init, %function
 186              	LeftEyebrow_Init:
 187              	.LFB1:
  85:Generated_Source\PSoC5/LeftEyebrow.c ****     #if (LeftEyebrow_UsingFixedFunction || LeftEyebrow_UseControl)
 188              		.loc 1 85 0
 189              		.cfi_startproc
 190              		@ args = 0, pretend = 0, frame = 0
 191              		@ frame_needed = 0, uses_anonymous_args = 0
 192 0000 10B5     		push	{r4, lr}
 193              		.cfi_def_cfa_offset 8
 194              		.cfi_offset 4, -8
 195              		.cfi_offset 14, -4
 117:Generated_Source\PSoC5/LeftEyebrow.c ****                 ((uint8)(~LeftEyebrow_CTRL_CMPMODE1_MASK));
 196              		.loc 1 117 0
 197 0002 154A     		ldr	r2, .L21
 130:Generated_Source\PSoC5/LeftEyebrow.c ****         #endif /* (LeftEyebrow_Resolution == 8) */
 198              		.loc 1 130 0
 199 0004 154C     		ldr	r4, .L21+4
 117:Generated_Source\PSoC5/LeftEyebrow.c ****                 ((uint8)(~LeftEyebrow_CTRL_CMPMODE1_MASK));
 200              		.loc 1 117 0
 201 0006 1378     		ldrb	r3, [r2]	@ zero_extendqisi2
 202              	.LVL1:
 119:Generated_Source\PSoC5/LeftEyebrow.c ****                                    LeftEyebrow_DEFAULT_COMPARE1_MODE;
 203              		.loc 1 119 0
 204 0008 03F0C003 		and	r3, r3, #192
 205              	.LVL2:
 206 000c 43F00903 		orr	r3, r3, #9
 207 0010 1370     		strb	r3, [r2]
 129:Generated_Source\PSoC5/LeftEyebrow.c ****             LeftEyebrow_AUX_CONTROLDP1 |= (LeftEyebrow_AUX_CTRL_FIFO0_CLR);
 208              		.loc 1 129 0
 209 0012 D37F     		ldrb	r3, [r2, #31]	@ zero_extendqisi2
 210 0014 43F00103 		orr	r3, r3, #1
 211 0018 D377     		strb	r3, [r2, #31]
 130:Generated_Source\PSoC5/LeftEyebrow.c ****         #endif /* (LeftEyebrow_Resolution == 8) */
 212              		.loc 1 130 0
 213 001a 2378     		ldrb	r3, [r4]	@ zero_extendqisi2
 214 001c 43F00103 		orr	r3, r3, #1
 215 0020 2370     		strb	r3, [r4]
 216              	.LVL3:
 217              	.LBB24:
 218              	.LBB25:
 406:Generated_Source\PSoC5/LeftEyebrow.c ****     }
 219              		.loc 1 406 0
 220 0022 44F62063 		movw	r3, #20000
 221 0026 A2F89933 		strh	r3, [r2, #921]	@ movhi
 222              	.LVL4:
 223              	.LBE25:
ARM GAS  C:\Users\jon\AppData\Local\Temp\ccMjDaHk.s 			page 19


 224              	.LBE24:
 225              	.LBB26:
 226              	.LBB27:
 487:Generated_Source\PSoC5/LeftEyebrow.c ****     #endif /* (LeftEyebrow_UsingFixedFunction) */
 227              		.loc 1 487 0
 228 002a A2F81934 		strh	r3, [r2, #1049]	@ movhi
 229              	.LVL5:
 230              	.LBE27:
 231              	.LBE26:
 232              	.LBB28:
 233              	.LBB29:
 561:Generated_Source\PSoC5/LeftEyebrow.c ****         #endif /* (LeftEyebrow_UsingFixedFunction) */
 234              		.loc 1 561 0
 235 002e 4FF4FA63 		mov	r3, #2000
 236 0032 A2F8D933 		strh	r3, [r2, #985]	@ movhi
 237              	.LVL6:
 238              	.LBE29:
 239              	.LBE28:
 240              	.LBB30:
 241              	.LBB31:
 590:Generated_Source\PSoC5/LeftEyebrow.c ****         #endif /* (LeftEyebrow_UsingFixedFunction) */
 242              		.loc 1 590 0
 243 0036 A2F8F933 		strh	r3, [r2, #1017]	@ movhi
 244              	.LVL7:
 245              	.LBE31:
 246              	.LBE30:
 247              	.LBB32:
 248              	.LBB33:
 686:Generated_Source\PSoC5/LeftEyebrow.c ****     }
 249              		.loc 1 686 0
 250 003a 094B     		ldr	r3, .L21+8
 251 003c 0022     		movs	r2, #0
 252 003e 1A70     		strb	r2, [r3]
 253              	.LVL8:
 254              	.LBE33:
 255              	.LBE32:
 167:Generated_Source\PSoC5/LeftEyebrow.c ****             /* Use the interrupt output of the status register for IRQ output */
 256              		.loc 1 167 0
 257 0040 FFF7FEFF 		bl	CyEnterCriticalSection
 258              	.LVL9:
 169:Generated_Source\PSoC5/LeftEyebrow.c **** 
 259              		.loc 1 169 0
 260 0044 2378     		ldrb	r3, [r4]	@ zero_extendqisi2
 261 0046 43F01003 		orr	r3, r3, #16
 262 004a 2370     		strb	r3, [r4]
 172:Generated_Source\PSoC5/LeftEyebrow.c **** 
 263              		.loc 1 172 0
 264 004c FFF7FEFF 		bl	CyExitCriticalSection
 265              	.LVL10:
 179:Generated_Source\PSoC5/LeftEyebrow.c **** 
 266              		.loc 1 179 0
 267 0050 BDE81040 		pop	{r4, lr}
 268              		.cfi_restore 14
 269              		.cfi_restore 4
 270              		.cfi_def_cfa_offset 0
 176:Generated_Source\PSoC5/LeftEyebrow.c ****         #endif /* (LeftEyebrow_UseStatus) */
 271              		.loc 1 176 0
ARM GAS  C:\Users\jon\AppData\Local\Temp\ccMjDaHk.s 			page 20


 272 0054 FFF7FEBF 		b	LeftEyebrow_ClearFIFO
 273              	.LVL11:
 274              	.L22:
 275              		.align	2
 276              	.L21:
 277 0058 7B640040 		.word	1073767547
 278 005c 9B640040 		.word	1073767579
 279 0060 8B640040 		.word	1073767563
 280              		.cfi_endproc
 281              	.LFE1:
 282              		.size	LeftEyebrow_Init, .-LeftEyebrow_Init
 283              		.section	.text.LeftEyebrow_Start,"ax",%progbits
 284              		.align	1
 285              		.global	LeftEyebrow_Start
 286              		.thumb
 287              		.thumb_func
 288              		.type	LeftEyebrow_Start, %function
 289              	LeftEyebrow_Start:
 290              	.LFB0:
  56:Generated_Source\PSoC5/LeftEyebrow.c ****     /* If not Initialized then initialize all required hardware and software */
 291              		.loc 1 56 0
 292              		.cfi_startproc
 293              		@ args = 0, pretend = 0, frame = 0
 294              		@ frame_needed = 0, uses_anonymous_args = 0
 295 0000 10B5     		push	{r4, lr}
 296              		.cfi_def_cfa_offset 8
 297              		.cfi_offset 4, -8
 298              		.cfi_offset 14, -4
  58:Generated_Source\PSoC5/LeftEyebrow.c ****     {
 299              		.loc 1 58 0
 300 0002 054C     		ldr	r4, .L25
 301 0004 2378     		ldrb	r3, [r4]	@ zero_extendqisi2
 302 0006 1BB9     		cbnz	r3, .L24
  60:Generated_Source\PSoC5/LeftEyebrow.c ****         LeftEyebrow_initVar = 1u;
 303              		.loc 1 60 0
 304 0008 FFF7FEFF 		bl	LeftEyebrow_Init
 305              	.LVL12:
  61:Generated_Source\PSoC5/LeftEyebrow.c ****     }
 306              		.loc 1 61 0
 307 000c 0123     		movs	r3, #1
 308 000e 2370     		strb	r3, [r4]
 309              	.L24:
  65:Generated_Source\PSoC5/LeftEyebrow.c **** 
 310              		.loc 1 65 0
 311 0010 BDE81040 		pop	{r4, lr}
 312              		.cfi_restore 14
 313              		.cfi_restore 4
 314              		.cfi_def_cfa_offset 0
  63:Generated_Source\PSoC5/LeftEyebrow.c **** 
 315              		.loc 1 63 0
 316 0014 FFF7FEBF 		b	LeftEyebrow_Enable
 317              	.LVL13:
 318              	.L26:
 319              		.align	2
 320              	.L25:
 321 0018 00000000 		.word	.LANCHOR0
 322              		.cfi_endproc
ARM GAS  C:\Users\jon\AppData\Local\Temp\ccMjDaHk.s 			page 21


 323              	.LFE0:
 324              		.size	LeftEyebrow_Start, .-LeftEyebrow_Start
 325              		.section	.text.LeftEyebrow_WritePeriod,"ax",%progbits
 326              		.align	1
 327              		.global	LeftEyebrow_WritePeriod
 328              		.thumb
 329              		.thumb_func
 330              		.type	LeftEyebrow_WritePeriod, %function
 331              	LeftEyebrow_WritePeriod:
 332              	.LFB7:
 483:Generated_Source\PSoC5/LeftEyebrow.c ****     #if(LeftEyebrow_UsingFixedFunction)
 333              		.loc 1 483 0
 334              		.cfi_startproc
 335              		@ args = 0, pretend = 0, frame = 0
 336              		@ frame_needed = 0, uses_anonymous_args = 0
 337              		@ link register save eliminated.
 338              	.LVL14:
 487:Generated_Source\PSoC5/LeftEyebrow.c ****     #endif /* (LeftEyebrow_UsingFixedFunction) */
 339              		.loc 1 487 0
 340 0000 014B     		ldr	r3, .L28
 341 0002 1880     		strh	r0, [r3]	@ movhi
 342 0004 7047     		bx	lr
 343              	.L29:
 344 0006 00BF     		.align	2
 345              	.L28:
 346 0008 94680040 		.word	1073768596
 347              		.cfi_endproc
 348              	.LFE7:
 349              		.size	LeftEyebrow_WritePeriod, .-LeftEyebrow_WritePeriod
 350              		.section	.text.LeftEyebrow_WriteCompare1,"ax",%progbits
 351              		.align	1
 352              		.global	LeftEyebrow_WriteCompare1
 353              		.thumb
 354              		.thumb_func
 355              		.type	LeftEyebrow_WriteCompare1, %function
 356              	LeftEyebrow_WriteCompare1:
 357              	.LFB8:
 557:Generated_Source\PSoC5/LeftEyebrow.c ****         #if(LeftEyebrow_UsingFixedFunction)
 358              		.loc 1 557 0
 359              		.cfi_startproc
 360              		@ args = 0, pretend = 0, frame = 0
 361              		@ frame_needed = 0, uses_anonymous_args = 0
 362              		@ link register save eliminated.
 363              	.LVL15:
 561:Generated_Source\PSoC5/LeftEyebrow.c ****         #endif /* (LeftEyebrow_UsingFixedFunction) */
 364              		.loc 1 561 0
 365 0000 014B     		ldr	r3, .L31
 366 0002 1880     		strh	r0, [r3]	@ movhi
 367 0004 7047     		bx	lr
 368              	.L32:
 369 0006 00BF     		.align	2
 370              	.L31:
 371 0008 54680040 		.word	1073768532
 372              		.cfi_endproc
 373              	.LFE8:
 374              		.size	LeftEyebrow_WriteCompare1, .-LeftEyebrow_WriteCompare1
 375              		.section	.text.LeftEyebrow_WriteCompare2,"ax",%progbits
ARM GAS  C:\Users\jon\AppData\Local\Temp\ccMjDaHk.s 			page 22


 376              		.align	1
 377              		.global	LeftEyebrow_WriteCompare2
 378              		.thumb
 379              		.thumb_func
 380              		.type	LeftEyebrow_WriteCompare2, %function
 381              	LeftEyebrow_WriteCompare2:
 382              	.LFB9:
 586:Generated_Source\PSoC5/LeftEyebrow.c ****         #if(LeftEyebrow_UsingFixedFunction)
 383              		.loc 1 586 0
 384              		.cfi_startproc
 385              		@ args = 0, pretend = 0, frame = 0
 386              		@ frame_needed = 0, uses_anonymous_args = 0
 387              		@ link register save eliminated.
 388              	.LVL16:
 590:Generated_Source\PSoC5/LeftEyebrow.c ****         #endif /* (LeftEyebrow_UsingFixedFunction) */
 389              		.loc 1 590 0
 390 0000 014B     		ldr	r3, .L34
 391 0002 1880     		strh	r0, [r3]	@ movhi
 392 0004 7047     		bx	lr
 393              	.L35:
 394 0006 00BF     		.align	2
 395              	.L34:
 396 0008 74680040 		.word	1073768564
 397              		.cfi_endproc
 398              	.LFE9:
 399              		.size	LeftEyebrow_WriteCompare2, .-LeftEyebrow_WriteCompare2
 400              		.section	.text.LeftEyebrow_SetInterruptMode,"ax",%progbits
 401              		.align	1
 402              		.global	LeftEyebrow_SetInterruptMode
 403              		.thumb
 404              		.thumb_func
 405              		.type	LeftEyebrow_SetInterruptMode, %function
 406              	LeftEyebrow_SetInterruptMode:
 407              	.LFB10:
 685:Generated_Source\PSoC5/LeftEyebrow.c ****         CY_SET_REG8(LeftEyebrow_STATUS_MASK_PTR, interruptMode);
 408              		.loc 1 685 0
 409              		.cfi_startproc
 410              		@ args = 0, pretend = 0, frame = 0
 411              		@ frame_needed = 0, uses_anonymous_args = 0
 412              		@ link register save eliminated.
 413              	.LVL17:
 686:Generated_Source\PSoC5/LeftEyebrow.c ****     }
 414              		.loc 1 686 0
 415 0000 014B     		ldr	r3, .L37
 416 0002 1870     		strb	r0, [r3]
 417 0004 7047     		bx	lr
 418              	.L38:
 419 0006 00BF     		.align	2
 420              	.L37:
 421 0008 8B640040 		.word	1073767563
 422              		.cfi_endproc
 423              	.LFE10:
 424              		.size	LeftEyebrow_SetInterruptMode, .-LeftEyebrow_SetInterruptMode
 425              		.section	.text.LeftEyebrow_ReadStatusRegister,"ax",%progbits
 426              		.align	1
 427              		.global	LeftEyebrow_ReadStatusRegister
 428              		.thumb
ARM GAS  C:\Users\jon\AppData\Local\Temp\ccMjDaHk.s 			page 23


 429              		.thumb_func
 430              		.type	LeftEyebrow_ReadStatusRegister, %function
 431              	LeftEyebrow_ReadStatusRegister:
 432              	.LFB11:
 712:Generated_Source\PSoC5/LeftEyebrow.c ****         return (CY_GET_REG8(LeftEyebrow_STATUS_PTR));
 433              		.loc 1 712 0
 434              		.cfi_startproc
 435              		@ args = 0, pretend = 0, frame = 0
 436              		@ frame_needed = 0, uses_anonymous_args = 0
 437              		@ link register save eliminated.
 713:Generated_Source\PSoC5/LeftEyebrow.c ****     }
 438              		.loc 1 713 0
 439 0000 014B     		ldr	r3, .L40
 440 0002 1878     		ldrb	r0, [r3]	@ zero_extendqisi2
 714:Generated_Source\PSoC5/LeftEyebrow.c **** 
 441              		.loc 1 714 0
 442 0004 7047     		bx	lr
 443              	.L41:
 444 0006 00BF     		.align	2
 445              	.L40:
 446 0008 6B640040 		.word	1073767531
 447              		.cfi_endproc
 448              	.LFE11:
 449              		.size	LeftEyebrow_ReadStatusRegister, .-LeftEyebrow_ReadStatusRegister
 450              		.section	.text.LeftEyebrow_ReadControlRegister,"ax",%progbits
 451              		.align	1
 452              		.global	LeftEyebrow_ReadControlRegister
 453              		.thumb
 454              		.thumb_func
 455              		.type	LeftEyebrow_ReadControlRegister, %function
 456              	LeftEyebrow_ReadControlRegister:
 457              	.LFB12:
 738:Generated_Source\PSoC5/LeftEyebrow.c ****         uint8 result;
 458              		.loc 1 738 0
 459              		.cfi_startproc
 460              		@ args = 0, pretend = 0, frame = 0
 461              		@ frame_needed = 0, uses_anonymous_args = 0
 462              		@ link register save eliminated.
 741:Generated_Source\PSoC5/LeftEyebrow.c ****         return (result);
 463              		.loc 1 741 0
 464 0000 014B     		ldr	r3, .L43
 465 0002 1878     		ldrb	r0, [r3]	@ zero_extendqisi2
 466              	.LVL18:
 743:Generated_Source\PSoC5/LeftEyebrow.c **** 
 467              		.loc 1 743 0
 468 0004 7047     		bx	lr
 469              	.L44:
 470 0006 00BF     		.align	2
 471              	.L43:
 472 0008 7B640040 		.word	1073767547
 473              		.cfi_endproc
 474              	.LFE12:
 475              		.size	LeftEyebrow_ReadControlRegister, .-LeftEyebrow_ReadControlRegister
 476              		.section	.text.LeftEyebrow_WriteControlRegister,"ax",%progbits
 477              		.align	1
 478              		.global	LeftEyebrow_WriteControlRegister
 479              		.thumb
ARM GAS  C:\Users\jon\AppData\Local\Temp\ccMjDaHk.s 			page 24


 480              		.thumb_func
 481              		.type	LeftEyebrow_WriteControlRegister, %function
 482              	LeftEyebrow_WriteControlRegister:
 483              	.LFB13:
 766:Generated_Source\PSoC5/LeftEyebrow.c ****         CY_SET_REG8(LeftEyebrow_CONTROL_PTR, control);
 484              		.loc 1 766 0
 485              		.cfi_startproc
 486              		@ args = 0, pretend = 0, frame = 0
 487              		@ frame_needed = 0, uses_anonymous_args = 0
 488              		@ link register save eliminated.
 489              	.LVL19:
 767:Generated_Source\PSoC5/LeftEyebrow.c ****     }
 490              		.loc 1 767 0
 491 0000 014B     		ldr	r3, .L46
 492 0002 1870     		strb	r0, [r3]
 493 0004 7047     		bx	lr
 494              	.L47:
 495 0006 00BF     		.align	2
 496              	.L46:
 497 0008 7B640040 		.word	1073767547
 498              		.cfi_endproc
 499              	.LFE13:
 500              		.size	LeftEyebrow_WriteControlRegister, .-LeftEyebrow_WriteControlRegister
 501              		.section	.text.LeftEyebrow_ReadCapture,"ax",%progbits
 502              		.align	1
 503              		.global	LeftEyebrow_ReadCapture
 504              		.thumb
 505              		.thumb_func
 506              		.type	LeftEyebrow_ReadCapture, %function
 507              	LeftEyebrow_ReadCapture:
 508              	.LFB14:
 791:Generated_Source\PSoC5/LeftEyebrow.c ****         return (CY_GET_REG16(LeftEyebrow_CAPTURE_LSB_PTR));
 509              		.loc 1 791 0
 510              		.cfi_startproc
 511              		@ args = 0, pretend = 0, frame = 0
 512              		@ frame_needed = 0, uses_anonymous_args = 0
 513              		@ link register save eliminated.
 514              		.loc 1 792 0
 515 0000 014B     		ldr	r3, .L49
 516 0002 1888     		ldrh	r0, [r3]
 793:Generated_Source\PSoC5/LeftEyebrow.c ****     }
 517              		.loc 1 793 0
 518 0004 80B2     		uxth	r0, r0
 519 0006 7047     		bx	lr
 520              	.L50:
 521              		.align	2
 522              	.L49:
 523 0008 B4680040 		.word	1073768628
 524              		.cfi_endproc
 525              	.LFE14:
 526              		.size	LeftEyebrow_ReadCapture, .-LeftEyebrow_ReadCapture
 527              		.section	.text.LeftEyebrow_ReadCompare1,"ax",%progbits
 528              		.align	1
 529              		.global	LeftEyebrow_ReadCompare1
 530              		.thumb
 531              		.thumb_func
 532              		.type	LeftEyebrow_ReadCompare1, %function
ARM GAS  C:\Users\jon\AppData\Local\Temp\ccMjDaHk.s 			page 25


 533              	LeftEyebrow_ReadCompare1:
 534              	.LFB15:
 794:Generated_Source\PSoC5/LeftEyebrow.c **** 
 795:Generated_Source\PSoC5/LeftEyebrow.c **** #endif /* (!LeftEyebrow_UsingFixedFunction) */
 796:Generated_Source\PSoC5/LeftEyebrow.c **** 
 797:Generated_Source\PSoC5/LeftEyebrow.c **** 
 798:Generated_Source\PSoC5/LeftEyebrow.c **** #if (LeftEyebrow_UseOneCompareMode)
 799:Generated_Source\PSoC5/LeftEyebrow.c **** 
 800:Generated_Source\PSoC5/LeftEyebrow.c **** 
 801:Generated_Source\PSoC5/LeftEyebrow.c ****     /*******************************************************************************
 802:Generated_Source\PSoC5/LeftEyebrow.c ****     * Function Name: LeftEyebrow_ReadCompare
 803:Generated_Source\PSoC5/LeftEyebrow.c ****     ********************************************************************************
 804:Generated_Source\PSoC5/LeftEyebrow.c ****     *
 805:Generated_Source\PSoC5/LeftEyebrow.c ****     * Summary:
 806:Generated_Source\PSoC5/LeftEyebrow.c ****     *  Reads the compare value for the compare output when the PWM Mode parameter is
 807:Generated_Source\PSoC5/LeftEyebrow.c ****     *  set to Dither mode, Center Aligned mode, or One Output mode.
 808:Generated_Source\PSoC5/LeftEyebrow.c ****     *
 809:Generated_Source\PSoC5/LeftEyebrow.c ****     * Parameters:
 810:Generated_Source\PSoC5/LeftEyebrow.c ****     *  None
 811:Generated_Source\PSoC5/LeftEyebrow.c ****     *
 812:Generated_Source\PSoC5/LeftEyebrow.c ****     * Return:
 813:Generated_Source\PSoC5/LeftEyebrow.c ****     *  uint8/uint16: Current compare value
 814:Generated_Source\PSoC5/LeftEyebrow.c ****     *
 815:Generated_Source\PSoC5/LeftEyebrow.c ****     *******************************************************************************/
 816:Generated_Source\PSoC5/LeftEyebrow.c ****     uint16 LeftEyebrow_ReadCompare(void) 
 817:Generated_Source\PSoC5/LeftEyebrow.c ****     {
 818:Generated_Source\PSoC5/LeftEyebrow.c ****         #if(LeftEyebrow_UsingFixedFunction)
 819:Generated_Source\PSoC5/LeftEyebrow.c ****             return ((uint16)CY_GET_REG16(LeftEyebrow_COMPARE1_LSB_PTR));
 820:Generated_Source\PSoC5/LeftEyebrow.c ****         #else
 821:Generated_Source\PSoC5/LeftEyebrow.c ****             return (CY_GET_REG16(LeftEyebrow_COMPARE1_LSB_PTR));
 822:Generated_Source\PSoC5/LeftEyebrow.c ****         #endif /* (LeftEyebrow_UsingFixedFunction) */
 823:Generated_Source\PSoC5/LeftEyebrow.c ****     }
 824:Generated_Source\PSoC5/LeftEyebrow.c **** 
 825:Generated_Source\PSoC5/LeftEyebrow.c **** #else
 826:Generated_Source\PSoC5/LeftEyebrow.c **** 
 827:Generated_Source\PSoC5/LeftEyebrow.c **** 
 828:Generated_Source\PSoC5/LeftEyebrow.c ****     /*******************************************************************************
 829:Generated_Source\PSoC5/LeftEyebrow.c ****     * Function Name: LeftEyebrow_ReadCompare1
 830:Generated_Source\PSoC5/LeftEyebrow.c ****     ********************************************************************************
 831:Generated_Source\PSoC5/LeftEyebrow.c ****     *
 832:Generated_Source\PSoC5/LeftEyebrow.c ****     * Summary:
 833:Generated_Source\PSoC5/LeftEyebrow.c ****     *  Reads the compare value for the compare1 output.
 834:Generated_Source\PSoC5/LeftEyebrow.c ****     *
 835:Generated_Source\PSoC5/LeftEyebrow.c ****     * Parameters:
 836:Generated_Source\PSoC5/LeftEyebrow.c ****     *  None
 837:Generated_Source\PSoC5/LeftEyebrow.c ****     *
 838:Generated_Source\PSoC5/LeftEyebrow.c ****     * Return:
 839:Generated_Source\PSoC5/LeftEyebrow.c ****     *  uint8/uint16: Current compare value.
 840:Generated_Source\PSoC5/LeftEyebrow.c ****     *
 841:Generated_Source\PSoC5/LeftEyebrow.c ****     *******************************************************************************/
 842:Generated_Source\PSoC5/LeftEyebrow.c ****     uint16 LeftEyebrow_ReadCompare1(void) 
 843:Generated_Source\PSoC5/LeftEyebrow.c ****     {
 535              		.loc 1 843 0
 536              		.cfi_startproc
 537              		@ args = 0, pretend = 0, frame = 0
 538              		@ frame_needed = 0, uses_anonymous_args = 0
 539              		@ link register save eliminated.
ARM GAS  C:\Users\jon\AppData\Local\Temp\ccMjDaHk.s 			page 26


 844:Generated_Source\PSoC5/LeftEyebrow.c ****         return (CY_GET_REG16(LeftEyebrow_COMPARE1_LSB_PTR));
 540              		.loc 1 844 0
 541 0000 014B     		ldr	r3, .L52
 542 0002 1888     		ldrh	r0, [r3]
 845:Generated_Source\PSoC5/LeftEyebrow.c ****     }
 543              		.loc 1 845 0
 544 0004 80B2     		uxth	r0, r0
 545 0006 7047     		bx	lr
 546              	.L53:
 547              		.align	2
 548              	.L52:
 549 0008 54680040 		.word	1073768532
 550              		.cfi_endproc
 551              	.LFE15:
 552              		.size	LeftEyebrow_ReadCompare1, .-LeftEyebrow_ReadCompare1
 553              		.section	.text.LeftEyebrow_ReadCompare2,"ax",%progbits
 554              		.align	1
 555              		.global	LeftEyebrow_ReadCompare2
 556              		.thumb
 557              		.thumb_func
 558              		.type	LeftEyebrow_ReadCompare2, %function
 559              	LeftEyebrow_ReadCompare2:
 560              	.LFB16:
 846:Generated_Source\PSoC5/LeftEyebrow.c **** 
 847:Generated_Source\PSoC5/LeftEyebrow.c **** 
 848:Generated_Source\PSoC5/LeftEyebrow.c ****     /*******************************************************************************
 849:Generated_Source\PSoC5/LeftEyebrow.c ****     * Function Name: LeftEyebrow_ReadCompare2
 850:Generated_Source\PSoC5/LeftEyebrow.c ****     ********************************************************************************
 851:Generated_Source\PSoC5/LeftEyebrow.c ****     *
 852:Generated_Source\PSoC5/LeftEyebrow.c ****     * Summary:
 853:Generated_Source\PSoC5/LeftEyebrow.c ****     *  Reads the compare value for the compare2 output.
 854:Generated_Source\PSoC5/LeftEyebrow.c ****     *
 855:Generated_Source\PSoC5/LeftEyebrow.c ****     * Parameters:
 856:Generated_Source\PSoC5/LeftEyebrow.c ****     *  None
 857:Generated_Source\PSoC5/LeftEyebrow.c ****     *
 858:Generated_Source\PSoC5/LeftEyebrow.c ****     * Return:
 859:Generated_Source\PSoC5/LeftEyebrow.c ****     *  uint8/uint16: Current compare value.
 860:Generated_Source\PSoC5/LeftEyebrow.c ****     *
 861:Generated_Source\PSoC5/LeftEyebrow.c ****     *******************************************************************************/
 862:Generated_Source\PSoC5/LeftEyebrow.c ****     uint16 LeftEyebrow_ReadCompare2(void) 
 863:Generated_Source\PSoC5/LeftEyebrow.c ****     {
 561              		.loc 1 863 0
 562              		.cfi_startproc
 563              		@ args = 0, pretend = 0, frame = 0
 564              		@ frame_needed = 0, uses_anonymous_args = 0
 565              		@ link register save eliminated.
 864:Generated_Source\PSoC5/LeftEyebrow.c ****         return (CY_GET_REG16(LeftEyebrow_COMPARE2_LSB_PTR));
 566              		.loc 1 864 0
 567 0000 014B     		ldr	r3, .L55
 568 0002 1888     		ldrh	r0, [r3]
 865:Generated_Source\PSoC5/LeftEyebrow.c ****     }
 569              		.loc 1 865 0
 570 0004 80B2     		uxth	r0, r0
 571 0006 7047     		bx	lr
 572              	.L56:
 573              		.align	2
 574              	.L55:
ARM GAS  C:\Users\jon\AppData\Local\Temp\ccMjDaHk.s 			page 27


 575 0008 74680040 		.word	1073768564
 576              		.cfi_endproc
 577              	.LFE16:
 578              		.size	LeftEyebrow_ReadCompare2, .-LeftEyebrow_ReadCompare2
 579              		.section	.text.LeftEyebrow_ReadPeriod,"ax",%progbits
 580              		.align	1
 581              		.global	LeftEyebrow_ReadPeriod
 582              		.thumb
 583              		.thumb_func
 584              		.type	LeftEyebrow_ReadPeriod, %function
 585              	LeftEyebrow_ReadPeriod:
 586              	.LFB17:
 866:Generated_Source\PSoC5/LeftEyebrow.c **** 
 867:Generated_Source\PSoC5/LeftEyebrow.c **** #endif /* (LeftEyebrow_UseOneCompareMode) */
 868:Generated_Source\PSoC5/LeftEyebrow.c **** 
 869:Generated_Source\PSoC5/LeftEyebrow.c **** 
 870:Generated_Source\PSoC5/LeftEyebrow.c **** /*******************************************************************************
 871:Generated_Source\PSoC5/LeftEyebrow.c **** * Function Name: LeftEyebrow_ReadPeriod
 872:Generated_Source\PSoC5/LeftEyebrow.c **** ********************************************************************************
 873:Generated_Source\PSoC5/LeftEyebrow.c **** *
 874:Generated_Source\PSoC5/LeftEyebrow.c **** * Summary:
 875:Generated_Source\PSoC5/LeftEyebrow.c **** *  Reads the period value used by the PWM hardware.
 876:Generated_Source\PSoC5/LeftEyebrow.c **** *
 877:Generated_Source\PSoC5/LeftEyebrow.c **** * Parameters:
 878:Generated_Source\PSoC5/LeftEyebrow.c **** *  None
 879:Generated_Source\PSoC5/LeftEyebrow.c **** *
 880:Generated_Source\PSoC5/LeftEyebrow.c **** * Return:
 881:Generated_Source\PSoC5/LeftEyebrow.c **** *  uint8/16: Period value
 882:Generated_Source\PSoC5/LeftEyebrow.c **** *
 883:Generated_Source\PSoC5/LeftEyebrow.c **** *******************************************************************************/
 884:Generated_Source\PSoC5/LeftEyebrow.c **** uint16 LeftEyebrow_ReadPeriod(void) 
 885:Generated_Source\PSoC5/LeftEyebrow.c **** {
 587              		.loc 1 885 0
 588              		.cfi_startproc
 589              		@ args = 0, pretend = 0, frame = 0
 590              		@ frame_needed = 0, uses_anonymous_args = 0
 591              		@ link register save eliminated.
 886:Generated_Source\PSoC5/LeftEyebrow.c ****     #if(LeftEyebrow_UsingFixedFunction)
 887:Generated_Source\PSoC5/LeftEyebrow.c ****         return ((uint16)CY_GET_REG16(LeftEyebrow_PERIOD_LSB_PTR));
 888:Generated_Source\PSoC5/LeftEyebrow.c ****     #else
 889:Generated_Source\PSoC5/LeftEyebrow.c ****         return (CY_GET_REG16(LeftEyebrow_PERIOD_LSB_PTR));
 592              		.loc 1 889 0
 593 0000 014B     		ldr	r3, .L58
 594 0002 1888     		ldrh	r0, [r3]
 890:Generated_Source\PSoC5/LeftEyebrow.c ****     #endif /* (LeftEyebrow_UsingFixedFunction) */
 891:Generated_Source\PSoC5/LeftEyebrow.c **** }
 595              		.loc 1 891 0
 596 0004 80B2     		uxth	r0, r0
 597 0006 7047     		bx	lr
 598              	.L59:
 599              		.align	2
 600              	.L58:
 601 0008 94680040 		.word	1073768596
 602              		.cfi_endproc
 603              	.LFE17:
 604              		.size	LeftEyebrow_ReadPeriod, .-LeftEyebrow_ReadPeriod
 605              		.global	LeftEyebrow_initVar
ARM GAS  C:\Users\jon\AppData\Local\Temp\ccMjDaHk.s 			page 28


 606              		.bss
 607              		.set	.LANCHOR0,. + 0
 608              		.type	LeftEyebrow_initVar, %object
 609              		.size	LeftEyebrow_initVar, 1
 610              	LeftEyebrow_initVar:
 611 0000 00       		.space	1
 612              		.text
 613              	.Letext0:
 614              		.file 2 "Generated_Source\\PSoC5\\cytypes.h"
 615              		.file 3 "Generated_Source\\PSoC5\\CyLib.h"