ARM GAS  C:\Users\jon\AppData\Local\Temp\ccJuL1Aw.s 			page 1


   1              		.syntax unified
   2              		.cpu cortex-m3
   3              		.fpu softvfp
   4              		.eabi_attribute 20, 1
   5              		.eabi_attribute 21, 1
   6              		.eabi_attribute 23, 3
   7              		.eabi_attribute 24, 1
   8              		.eabi_attribute 25, 1
   9              		.eabi_attribute 26, 1
  10              		.eabi_attribute 30, 4
  11              		.eabi_attribute 34, 1
  12              		.eabi_attribute 18, 4
  13              		.thumb
  14              		.syntax unified
  15              		.file	"main.c"
  16              		.text
  17              	.Ltext0:
  18              		.cfi_sections	.debug_frame
  19              		.section	.text.periodic_task,"ax",%progbits
  20              		.align	1
  21              		.global	periodic_task
  22              		.thumb
  23              		.thumb_func
  24              		.type	periodic_task, %function
  25              	periodic_task:
  26              	.LFB63:
  27              		.file 1 "main.c"
   1:main.c        **** /* ========================================
   2:main.c        ****  *
   3:main.c        ****  * Copyright YOUR COMPANY, THE YEAR
   4:main.c        ****  * All Rights Reserved
   5:main.c        ****  * UNPUBLISHED, LICENSED SOFTWARE.
   6:main.c        ****  *
   7:main.c        ****  * CONFIDENTIAL AND PROPRIETARY INFORMATION
   8:main.c        ****  * WHICH IS THE PROPERTY OF your company.
   9:main.c        ****  *
  10:main.c        ****  * ========================================
  11:main.c        **** */
  12:main.c        **** 
  13:main.c        **** #include "servocontrol.h"
  14:main.c        **** #include "neck.h"
  15:main.c        **** #include "project.h"
  16:main.c        **** 
  17:main.c        **** 
  18:main.c        **** #define STEP_DELAY 10000
  19:main.c        **** 
  20:main.c        **** 
  21:main.c        **** 
  22:main.c        **** 
  23:main.c        **** 
  24:main.c        **** CY_ISR_PROTO(periodic_task);
  25:main.c        **** 
  26:main.c        **** 
  27:main.c        **** /* called at 200 Hz */
  28:main.c        **** CY_ISR(periodic_task) {
  28              		.loc 1 28 0
  29              		.cfi_startproc
ARM GAS  C:\Users\jon\AppData\Local\Temp\ccJuL1Aw.s 			page 2


  30              		@ args = 0, pretend = 0, frame = 0
  31              		@ frame_needed = 0, uses_anonymous_args = 0
  32 0000 08B5     		push	{r3, lr}
  33              		.cfi_def_cfa_offset 8
  34              		.cfi_offset 3, -8
  35              		.cfi_offset 14, -4
  29:main.c        ****     Timer_ReadStatusRegister();
  36              		.loc 1 29 0
  37 0002 FFF7FEFF 		bl	Timer_ReadStatusRegister
  38              	.LVL0:
  30:main.c        ****     update_servos();
  31:main.c        **** }
  39              		.loc 1 31 0
  40 0006 BDE80840 		pop	{r3, lr}
  41              		.cfi_restore 14
  42              		.cfi_restore 3
  43              		.cfi_def_cfa_offset 0
  30:main.c        ****     update_servos();
  44              		.loc 1 30 0
  45 000a FFF7FEBF 		b	update_servos
  46              	.LVL1:
  47              		.cfi_endproc
  48              	.LFE63:
  49              		.size	periodic_task, .-periodic_task
  50              		.section	.text.startup.main,"ax",%progbits
  51              		.align	1
  52              		.global	main
  53              		.thumb
  54              		.thumb_func
  55              		.type	main, %function
  56              	main:
  57              	.LFB64:
  32:main.c        **** 
  33:main.c        **** int main(void)
  34:main.c        **** {
  58              		.loc 1 34 0
  59              		.cfi_startproc
  60              		@ Volatile: function does not return.
  61              		@ args = 0, pretend = 0, frame = 0
  62              		@ frame_needed = 0, uses_anonymous_args = 0
  63 0000 08B5     		push	{r3, lr}
  64              		.cfi_def_cfa_offset 8
  65              		.cfi_offset 3, -8
  66              		.cfi_offset 14, -4
  35:main.c        ****     CyGlobalIntEnable; /* Enable global interrupts. */
  67              		.loc 1 35 0
  68              		.syntax unified
  69              	@ 35 "main.c" 1
  70 0002 62B6     		CPSIE   i
  71              	@ 0 "" 2
  36:main.c        **** 
  37:main.c        ****     /* Place your initialization/startup code here (e.g. MyInst_Start()) */
  38:main.c        **** 
  39:main.c        ****     LeftEyebrow_Start();
  72              		.loc 1 39 0
  73              		.thumb
  74              		.syntax unified
ARM GAS  C:\Users\jon\AppData\Local\Temp\ccJuL1Aw.s 			page 3


  75 0004 FFF7FEFF 		bl	LeftEyebrow_Start
  76              	.LVL2:
  40:main.c        ****     RightEyebrow_Start();
  77              		.loc 1 40 0
  78 0008 FFF7FEFF 		bl	RightEyebrow_Start
  79              	.LVL3:
  41:main.c        ****     RightEyeball_Start();
  80              		.loc 1 41 0
  81 000c FFF7FEFF 		bl	RightEyeball_Start
  82              	.LVL4:
  42:main.c        ****     //LeftEyeball_Start();
  43:main.c        ****     
  44:main.c        ****     Neck_Start();
  83              		.loc 1 44 0
  84 0010 FFF7FEFF 		bl	Neck_Start
  85              	.LVL5:
  45:main.c        ****     
  46:main.c        ****     set_smooth_servo_angle(NECK_LEFT, 160);
  86              		.loc 1 46 0
  87 0014 A021     		movs	r1, #160
  88 0016 0120     		movs	r0, #1
  89 0018 FFF7FEFF 		bl	set_smooth_servo_angle
  90              	.LVL6:
  47:main.c        ****     set_smooth_servo_angle(NECK_RIGHT, 30);
  91              		.loc 1 47 0
  92 001c 1E21     		movs	r1, #30
  93 001e 0220     		movs	r0, #2
  94 0020 FFF7FEFF 		bl	set_smooth_servo_angle
  95              	.LVL7:
  48:main.c        ****     set_smooth_servo_angle(LEFT_EYEBROW_RIGHT, 90);
  96              		.loc 1 48 0
  97 0024 0D20     		movs	r0, #13
  98 0026 5A21     		movs	r1, #90
  99 0028 FFF7FEFF 		bl	set_smooth_servo_angle
 100              	.LVL8:
  49:main.c        ****     
  50:main.c        ****     Timer_Start();
 101              		.loc 1 50 0
 102 002c FFF7FEFF 		bl	Timer_Start
 103              	.LVL9:
  51:main.c        ****     
  52:main.c        ****     timer_isr_StartEx(periodic_task);
 104              		.loc 1 52 0
 105 0030 1348     		ldr	r0, .L5
 106 0032 FFF7FEFF 		bl	timer_isr_StartEx
 107              	.LVL10:
 108              	.L3:
  53:main.c        ****     for(;;)
  54:main.c        ****     {
  55:main.c        ****         tilt_set(HEAD_TILT_BACK);
 109              		.loc 1 55 0 discriminator 1
 110 0036 0320     		movs	r0, #3
 111 0038 FFF7FEFF 		bl	tilt_set
 112              	.LVL11:
  56:main.c        ****         CyDelay(STEP_DELAY);
 113              		.loc 1 56 0 discriminator 1
 114 003c 42F21070 		movw	r0, #10000
ARM GAS  C:\Users\jon\AppData\Local\Temp\ccJuL1Aw.s 			page 4


 115 0040 FFF7FEFF 		bl	CyDelay
 116              	.LVL12:
  57:main.c        ****         tilt_set(HEAD_TILT_CENTER);
 117              		.loc 1 57 0 discriminator 1
 118 0044 0120     		movs	r0, #1
 119 0046 FFF7FEFF 		bl	tilt_set
 120              	.LVL13:
  58:main.c        ****         CyDelay(STEP_DELAY);
 121              		.loc 1 58 0 discriminator 1
 122 004a 42F21070 		movw	r0, #10000
 123 004e FFF7FEFF 		bl	CyDelay
 124              	.LVL14:
  59:main.c        ****         tilt_set(HEAD_TILT_FORWARD);
 125              		.loc 1 59 0 discriminator 1
 126 0052 0420     		movs	r0, #4
 127 0054 FFF7FEFF 		bl	tilt_set
 128              	.LVL15:
  60:main.c        ****         CyDelay(STEP_DELAY);
 129              		.loc 1 60 0 discriminator 1
 130 0058 42F21070 		movw	r0, #10000
 131 005c FFF7FEFF 		bl	CyDelay
 132              	.LVL16:
  61:main.c        ****         tilt_set(HEAD_TILT_LEFT);
 133              		.loc 1 61 0 discriminator 1
 134 0060 0020     		movs	r0, #0
 135 0062 FFF7FEFF 		bl	tilt_set
 136              	.LVL17:
  62:main.c        ****         CyDelay(STEP_DELAY);
 137              		.loc 1 62 0 discriminator 1
 138 0066 42F21070 		movw	r0, #10000
 139 006a FFF7FEFF 		bl	CyDelay
 140              	.LVL18:
  63:main.c        ****         tilt_set(HEAD_TILT_RIGHT);
 141              		.loc 1 63 0 discriminator 1
 142 006e 0220     		movs	r0, #2
 143 0070 FFF7FEFF 		bl	tilt_set
 144              	.LVL19:
  64:main.c        ****         CyDelay(STEP_DELAY);
 145              		.loc 1 64 0 discriminator 1
 146 0074 42F21070 		movw	r0, #10000
 147 0078 FFF7FEFF 		bl	CyDelay
 148              	.LVL20:
 149 007c DBE7     		b	.L3
 150              	.L6:
 151 007e 00BF     		.align	2
 152              	.L5:
 153 0080 00000000 		.word	periodic_task
 154              		.cfi_endproc
 155              	.LFE64:
 156              		.size	main, .-main
 157              		.text
 158              	.Letext0:
 159              		.file 2 "c:\\program files (x86)\\cypress\\psoc creator\\4.2\\psoc creator\\import\\gnu\\arm\\5.4.
 160              		.file 3 "c:\\program files (x86)\\cypress\\psoc creator\\4.2\\psoc creator\\import\\gnu\\arm\\5.4.
 161              		.file 4 "servocontrol.h"
 162              		.file 5 "neck.h"
 163              		.file 6 "Generated_Source\\PSoC5/Timer.h"
ARM GAS  C:\Users\jon\AppData\Local\Temp\ccJuL1Aw.s 			page 5


 164              		.file 7 "Generated_Source\\PSoC5/LeftEyebrow.h"
 165              		.file 8 "Generated_Source\\PSoC5/RightEyebrow.h"
 166              		.file 9 "Generated_Source\\PSoC5/RightEyeball.h"
 167              		.file 10 "Generated_Source\\PSoC5/Neck.h"
 168              		.file 11 "Generated_Source\\PSoC5/timer_isr.h"
 169              		.file 12 "Generated_Source\\PSoC5/CyLib.h"
 170              		.file 13 "Generated_Source\\PSoC5/core_cm3.h"