ARM GAS  C:\Users\jon\AppData\Local\Temp\cck82k1g.s 			page 1


   1              		.syntax unified
   2              		.cpu cortex-m3
   3              		.fpu softvfp
   4              		.eabi_attribute 20, 1
   5              		.eabi_attribute 21, 1
   6              		.eabi_attribute 23, 3
   7              		.eabi_attribute 24, 1
   8              		.eabi_attribute 25, 1
   9              		.eabi_attribute 26, 1
  10              		.eabi_attribute 30, 1
  11              		.eabi_attribute 34, 1
  12              		.eabi_attribute 18, 4
  13              		.thumb
  14              		.syntax unified
  15              		.file	"main.c"
  16              		.text
  17              	.Ltext0:
  18              		.cfi_sections	.debug_frame
  19              		.section	.text.periodic_task,"ax",%progbits
  20              		.align	2
  21              		.global	periodic_task
  22              		.thumb
  23              		.thumb_func
  24              		.type	periodic_task, %function
  25              	periodic_task:
  26              	.LFB63:
  27              		.file 1 "main.c"
   1:main.c        **** /* ========================================
   2:main.c        ****  *
   3:main.c        ****  * Copyright YOUR COMPANY, THE YEAR
   4:main.c        ****  * All Rights Reserved
   5:main.c        ****  * UNPUBLISHED, LICENSED SOFTWARE.
   6:main.c        ****  *
   7:main.c        ****  * CONFIDENTIAL AND PROPRIETARY INFORMATION
   8:main.c        ****  * WHICH IS THE PROPERTY OF your company.
   9:main.c        ****  *
  10:main.c        ****  * ========================================
  11:main.c        **** */
  12:main.c        **** 
  13:main.c        **** #include "servocontrol.h"
  14:main.c        **** #include "neckcontrol.h"
  15:main.c        **** #include "mouthcontrol.h"
  16:main.c        **** #include "eyecontrol.h"
  17:main.c        **** #include "project.h"
  18:main.c        **** 
  19:main.c        **** 
  20:main.c        **** #define STEP_DELAY 1000000
  21:main.c        **** 
  22:main.c        **** 
  23:main.c        **** CY_ISR_PROTO(periodic_task);
  24:main.c        **** 
  25:main.c        **** 
  26:main.c        **** /* called at 200 Hz */
  27:main.c        **** CY_ISR(periodic_task) {
  28              		.loc 1 27 0
  29              		.cfi_startproc
  30              		@ args = 0, pretend = 0, frame = 0
ARM GAS  C:\Users\jon\AppData\Local\Temp\cck82k1g.s 			page 2


  31              		@ frame_needed = 0, uses_anonymous_args = 0
  32 0000 08B5     		push	{r3, lr}
  33              		.cfi_def_cfa_offset 8
  34              		.cfi_offset 3, -8
  35              		.cfi_offset 14, -4
  28:main.c        ****     Timer_ReadStatusRegister();
  36              		.loc 1 28 0
  37 0002 FFF7FEFF 		bl	Timer_ReadStatusRegister
  38              	.LVL0:
  29:main.c        ****     update_servos();
  39              		.loc 1 29 0
  40 0006 FFF7FEFF 		bl	update_servos
  41              	.LVL1:
  42 000a 08BD     		pop	{r3, pc}
  43              		.cfi_endproc
  44              	.LFE63:
  45              		.size	periodic_task, .-periodic_task
  46              		.section	.text.blink,"ax",%progbits
  47              		.align	2
  48              		.global	blink
  49              		.thumb
  50              		.thumb_func
  51              		.type	blink, %function
  52              	blink:
  53              	.LFB64:
  30:main.c        **** }
  31:main.c        **** 
  32:main.c        **** /* facial expressions */
  33:main.c        **** 
  34:main.c        **** void blink(int x){
  54              		.loc 1 34 0
  55              		.cfi_startproc
  56              		@ args = 0, pretend = 0, frame = 0
  57              		@ frame_needed = 0, uses_anonymous_args = 0
  58              	.LVL2:
  59 0000 38B5     		push	{r3, r4, r5, lr}
  60              		.cfi_def_cfa_offset 16
  61              		.cfi_offset 3, -16
  62              		.cfi_offset 4, -12
  63              		.cfi_offset 5, -8
  64              		.cfi_offset 14, -4
  65 0002 0546     		mov	r5, r0
  66              	.LVL3:
  67              	.LBB2:
  35:main.c        **** 	for(int i = 0; i < x; i++){
  68              		.loc 1 35 0
  69 0004 0024     		movs	r4, #0
  70 0006 0EE0     		b	.L4
  71              	.LVL4:
  72              	.L5:
  36:main.c        **** 		eyelid_set(EYELID_CLOSED);
  73              		.loc 1 36 0 discriminator 3
  74 0008 0020     		movs	r0, #0
  75 000a FFF7FEFF 		bl	eyelid_set
  76              	.LVL5:
  37:main.c        **** 		CyDelay(600);
  77              		.loc 1 37 0 discriminator 3
ARM GAS  C:\Users\jon\AppData\Local\Temp\cck82k1g.s 			page 3


  78 000e 4FF41670 		mov	r0, #600
  79 0012 FFF7FEFF 		bl	CyDelay
  80              	.LVL6:
  38:main.c        **** 		eyelid_set(EYELID_CENTER);
  81              		.loc 1 38 0 discriminator 3
  82 0016 0120     		movs	r0, #1
  83 0018 FFF7FEFF 		bl	eyelid_set
  84              	.LVL7:
  39:main.c        **** 		CyDelay(500);
  85              		.loc 1 39 0 discriminator 3
  86 001c 4FF4FA70 		mov	r0, #500
  87 0020 FFF7FEFF 		bl	CyDelay
  88              	.LVL8:
  35:main.c        **** 		eyelid_set(EYELID_CLOSED);
  89              		.loc 1 35 0 discriminator 3
  90 0024 0134     		adds	r4, r4, #1
  91              	.LVL9:
  92              	.L4:
  35:main.c        **** 		eyelid_set(EYELID_CLOSED);
  93              		.loc 1 35 0 is_stmt 0 discriminator 1
  94 0026 AC42     		cmp	r4, r5
  95 0028 EEDB     		blt	.L5
  96              	.LBE2:
  40:main.c        **** 	}
  41:main.c        **** }
  97              		.loc 1 41 0 is_stmt 1
  98 002a 38BD     		pop	{r3, r4, r5, pc}
  99              		.cfi_endproc
 100              	.LFE64:
 101              		.size	blink, .-blink
 102              		.section	.text.neutral,"ax",%progbits
 103              		.align	2
 104              		.global	neutral
 105              		.thumb
 106              		.thumb_func
 107              		.type	neutral, %function
 108              	neutral:
 109              	.LFB65:
  42:main.c        **** 
  43:main.c        **** void neutral() {
 110              		.loc 1 43 0
 111              		.cfi_startproc
 112              		@ args = 0, pretend = 0, frame = 0
 113              		@ frame_needed = 0, uses_anonymous_args = 0
 114 0000 08B5     		push	{r3, lr}
 115              		.cfi_def_cfa_offset 8
 116              		.cfi_offset 3, -8
 117              		.cfi_offset 14, -4
  44:main.c        **** 	rotate_set(NECK_ROTATE_CENTER);
 118              		.loc 1 44 0
 119 0002 0120     		movs	r0, #1
 120 0004 FFF7FEFF 		bl	rotate_set
 121              	.LVL10:
  45:main.c        **** 	tilt_set(HEAD_TILT_CENTER);
 122              		.loc 1 45 0
 123 0008 0120     		movs	r0, #1
 124 000a FFF7FEFF 		bl	tilt_set
ARM GAS  C:\Users\jon\AppData\Local\Temp\cck82k1g.s 			page 4


 125              	.LVL11:
  46:main.c        **** 	mouth_set(MOUTH_CLOSE);
 126              		.loc 1 46 0
 127 000e 0120     		movs	r0, #1
 128 0010 FFF7FEFF 		bl	mouth_set
 129              	.LVL12:
  47:main.c        **** 	lip_set(LIP_NORMAL);
 130              		.loc 1 47 0
 131 0014 0020     		movs	r0, #0
 132 0016 FFF7FEFF 		bl	lip_set
 133              	.LVL13:
  48:main.c        **** 	eyelid_set(EYELID_CENTER);
 134              		.loc 1 48 0
 135 001a 0120     		movs	r0, #1
 136 001c FFF7FEFF 		bl	eyelid_set
 137              	.LVL14:
  49:main.c        **** 	eyeball_set(EYEBALL_CENTER);
 138              		.loc 1 49 0
 139 0020 0020     		movs	r0, #0
 140 0022 FFF7FEFF 		bl	eyeball_set
 141              	.LVL15:
  50:main.c        **** 	eyebrow_set(EYEBROW_NORMAL);
 142              		.loc 1 50 0
 143 0026 0020     		movs	r0, #0
 144 0028 FFF7FEFF 		bl	eyebrow_set
 145              	.LVL16:
 146 002c 08BD     		pop	{r3, pc}
 147              		.cfi_endproc
 148              	.LFE65:
 149              		.size	neutral, .-neutral
 150 002e 00BF     		.section	.text.sad,"ax",%progbits
 151              		.align	2
 152              		.global	sad
 153              		.thumb
 154              		.thumb_func
 155              		.type	sad, %function
 156              	sad:
 157              	.LFB66:
  51:main.c        **** }
  52:main.c        **** 
  53:main.c        **** void sad() {
 158              		.loc 1 53 0
 159              		.cfi_startproc
 160              		@ args = 0, pretend = 0, frame = 0
 161              		@ frame_needed = 0, uses_anonymous_args = 0
 162 0000 08B5     		push	{r3, lr}
 163              		.cfi_def_cfa_offset 8
 164              		.cfi_offset 3, -8
 165              		.cfi_offset 14, -4
  54:main.c        ****   neutral();
 166              		.loc 1 54 0
 167 0002 FFF7FEFF 		bl	neutral
 168              	.LVL17:
  55:main.c        ****   eyebrow_set(EYEBROW_BOTHRAISE);
 169              		.loc 1 55 0
 170 0006 0320     		movs	r0, #3
 171 0008 FFF7FEFF 		bl	eyebrow_set
ARM GAS  C:\Users\jon\AppData\Local\Temp\cck82k1g.s 			page 5


 172              	.LVL18:
  56:main.c        ****   mouth_set(MOUTH_CLOSE);
 173              		.loc 1 56 0
 174 000c 0120     		movs	r0, #1
 175 000e FFF7FEFF 		bl	mouth_set
 176              	.LVL19:
  57:main.c        ****   lip_set(LIP_FROWN);
 177              		.loc 1 57 0
 178 0012 0320     		movs	r0, #3
 179 0014 FFF7FEFF 		bl	lip_set
 180              	.LVL20:
  58:main.c        ****   eyelid_set(EYELID_CENTER);
 181              		.loc 1 58 0
 182 0018 0120     		movs	r0, #1
 183 001a FFF7FEFF 		bl	eyelid_set
 184              	.LVL21:
  59:main.c        ****   eyeball_set(EYEBALL_CENTER);
 185              		.loc 1 59 0
 186 001e 0020     		movs	r0, #0
 187 0020 FFF7FEFF 		bl	eyeball_set
 188              	.LVL22:
  60:main.c        ****   tilt_set(HEAD_TILT_FORWARD);
 189              		.loc 1 60 0
 190 0024 0420     		movs	r0, #4
 191 0026 FFF7FEFF 		bl	tilt_set
 192              	.LVL23:
  61:main.c        ****   rotate_set(NECK_ROTATE_CENTER);
 193              		.loc 1 61 0
 194 002a 0120     		movs	r0, #1
 195 002c FFF7FEFF 		bl	rotate_set
 196              	.LVL24:
 197 0030 08BD     		pop	{r3, pc}
 198              		.cfi_endproc
 199              	.LFE66:
 200              		.size	sad, .-sad
 201 0032 00BF     		.section	.text.surprised,"ax",%progbits
 202              		.align	2
 203              		.global	surprised
 204              		.thumb
 205              		.thumb_func
 206              		.type	surprised, %function
 207              	surprised:
 208              	.LFB67:
  62:main.c        **** }
  63:main.c        **** 
  64:main.c        **** void surprised() {
 209              		.loc 1 64 0
 210              		.cfi_startproc
 211              		@ args = 0, pretend = 0, frame = 0
 212              		@ frame_needed = 0, uses_anonymous_args = 0
 213 0000 08B5     		push	{r3, lr}
 214              		.cfi_def_cfa_offset 8
 215              		.cfi_offset 3, -8
 216              		.cfi_offset 14, -4
  65:main.c        ****     neutral();
 217              		.loc 1 65 0
 218 0002 FFF7FEFF 		bl	neutral
ARM GAS  C:\Users\jon\AppData\Local\Temp\cck82k1g.s 			page 6


 219              	.LVL25:
  66:main.c        **** 	rotate_set(NECK_ROTATE_CENTER);
 220              		.loc 1 66 0
 221 0006 0120     		movs	r0, #1
 222 0008 FFF7FEFF 		bl	rotate_set
 223              	.LVL26:
  67:main.c        **** 	tilt_set(HEAD_TILT_BACK);
 224              		.loc 1 67 0
 225 000c 0320     		movs	r0, #3
 226 000e FFF7FEFF 		bl	tilt_set
 227              	.LVL27:
  68:main.c        **** 	mouth_set(MOUTH_OPEN);
 228              		.loc 1 68 0
 229 0012 0020     		movs	r0, #0
 230 0014 FFF7FEFF 		bl	mouth_set
 231              	.LVL28:
  69:main.c        **** 	lip_set(LIP_NORMAL);
 232              		.loc 1 69 0
 233 0018 0020     		movs	r0, #0
 234 001a FFF7FEFF 		bl	lip_set
 235              	.LVL29:
  70:main.c        **** 	eyelid_set(EYELID_CENTER);
 236              		.loc 1 70 0
 237 001e 0120     		movs	r0, #1
 238 0020 FFF7FEFF 		bl	eyelid_set
 239              	.LVL30:
  71:main.c        **** 	eyeball_set(EYEBALL_CENTER);
 240              		.loc 1 71 0
 241 0024 0020     		movs	r0, #0
 242 0026 FFF7FEFF 		bl	eyeball_set
 243              	.LVL31:
  72:main.c        **** 	eyebrow_set(EYEBROW_BOTHRAISE);
 244              		.loc 1 72 0
 245 002a 0320     		movs	r0, #3
 246 002c FFF7FEFF 		bl	eyebrow_set
 247              	.LVL32:
 248 0030 08BD     		pop	{r3, pc}
 249              		.cfi_endproc
 250              	.LFE67:
 251              		.size	surprised, .-surprised
 252 0032 00BF     		.section	.text.anguish,"ax",%progbits
 253              		.align	2
 254              		.global	anguish
 255              		.thumb
 256              		.thumb_func
 257              		.type	anguish, %function
 258              	anguish:
 259              	.LFB68:
  73:main.c        **** }
  74:main.c        **** 
  75:main.c        **** void anguish() {
 260              		.loc 1 75 0
 261              		.cfi_startproc
 262              		@ args = 0, pretend = 0, frame = 0
 263              		@ frame_needed = 0, uses_anonymous_args = 0
 264 0000 08B5     		push	{r3, lr}
 265              		.cfi_def_cfa_offset 8
ARM GAS  C:\Users\jon\AppData\Local\Temp\cck82k1g.s 			page 7


 266              		.cfi_offset 3, -8
 267              		.cfi_offset 14, -4
  76:main.c        ****     tilt_set(HEAD_TILT_BACK);
 268              		.loc 1 76 0
 269 0002 0320     		movs	r0, #3
 270 0004 FFF7FEFF 		bl	tilt_set
 271              	.LVL33:
  77:main.c        ****     mouth_set(MOUTH_AGAPE);
 272              		.loc 1 77 0
 273 0008 0220     		movs	r0, #2
 274 000a FFF7FEFF 		bl	mouth_set
 275              	.LVL34:
  78:main.c        ****     eyebrow_set(EYEBROW_BOTHRAISE);
 276              		.loc 1 78 0
 277 000e 0320     		movs	r0, #3
 278 0010 FFF7FEFF 		bl	eyebrow_set
 279              	.LVL35:
  79:main.c        ****     tilt_set(HEAD_TILT_LEFT);
 280              		.loc 1 79 0
 281 0014 0020     		movs	r0, #0
 282 0016 FFF7FEFF 		bl	tilt_set
 283              	.LVL36:
  80:main.c        ****     rotate_set(NECK_ROTATE_LEFT);
 284              		.loc 1 80 0
 285 001a 0020     		movs	r0, #0
 286 001c FFF7FEFF 		bl	rotate_set
 287              	.LVL37:
  81:main.c        ****     eyeball_set(EYEBALL_CENTER);   
 288              		.loc 1 81 0
 289 0020 0020     		movs	r0, #0
 290 0022 FFF7FEFF 		bl	eyeball_set
 291              	.LVL38:
 292 0026 08BD     		pop	{r3, pc}
 293              		.cfi_endproc
 294              	.LFE68:
 295              		.size	anguish, .-anguish
 296              		.section	.text.confused,"ax",%progbits
 297              		.align	2
 298              		.global	confused
 299              		.thumb
 300              		.thumb_func
 301              		.type	confused, %function
 302              	confused:
 303              	.LFB69:
  82:main.c        **** }
  83:main.c        **** 
  84:main.c        **** void confused() {
 304              		.loc 1 84 0
 305              		.cfi_startproc
 306              		@ args = 0, pretend = 0, frame = 0
 307              		@ frame_needed = 0, uses_anonymous_args = 0
 308 0000 08B5     		push	{r3, lr}
 309              		.cfi_def_cfa_offset 8
 310              		.cfi_offset 3, -8
 311              		.cfi_offset 14, -4
  85:main.c        ****     eyebrow_set(EYEBROW_LEFTRAISE);
 312              		.loc 1 85 0
ARM GAS  C:\Users\jon\AppData\Local\Temp\cck82k1g.s 			page 8


 313 0002 0120     		movs	r0, #1
 314 0004 FFF7FEFF 		bl	eyebrow_set
 315              	.LVL39:
  86:main.c        ****     eyeball_set(EYEBALL_UP);
 316              		.loc 1 86 0
 317 0008 0320     		movs	r0, #3
 318 000a FFF7FEFF 		bl	eyeball_set
 319              	.LVL40:
  87:main.c        ****     lip_set(LIP_LEFT_SMIRK);
 320              		.loc 1 87 0
 321 000e 0120     		movs	r0, #1
 322 0010 FFF7FEFF 		bl	lip_set
 323              	.LVL41:
  88:main.c        ****     rotate_set(NECK_ROTATE_LEFT);
 324              		.loc 1 88 0
 325 0014 0020     		movs	r0, #0
 326 0016 FFF7FEFF 		bl	rotate_set
 327              	.LVL42:
  89:main.c        ****     tilt_set(HEAD_TILT_RIGHT);
 328              		.loc 1 89 0
 329 001a 0220     		movs	r0, #2
 330 001c FFF7FEFF 		bl	tilt_set
 331              	.LVL43:
  90:main.c        ****     CyDelay(STEP_DELAY);
 332              		.loc 1 90 0
 333 0020 0148     		ldr	r0, .L17
 334 0022 FFF7FEFF 		bl	CyDelay
 335              	.LVL44:
 336 0026 08BD     		pop	{r3, pc}
 337              	.L18:
 338              		.align	2
 339              	.L17:
 340 0028 40420F00 		.word	1000000
 341              		.cfi_endproc
 342              	.LFE69:
 343              		.size	confused, .-confused
 344              		.section	.text.eyeroll,"ax",%progbits
 345              		.align	2
 346              		.global	eyeroll
 347              		.thumb
 348              		.thumb_func
 349              		.type	eyeroll, %function
 350              	eyeroll:
 351              	.LFB70:
  91:main.c        ****            
  92:main.c        **** }
  93:main.c        **** 
  94:main.c        **** void eyeroll() {
 352              		.loc 1 94 0
 353              		.cfi_startproc
 354              		@ args = 0, pretend = 0, frame = 0
 355              		@ frame_needed = 0, uses_anonymous_args = 0
 356 0000 08B5     		push	{r3, lr}
 357              		.cfi_def_cfa_offset 8
 358              		.cfi_offset 3, -8
 359              		.cfi_offset 14, -4
  95:main.c        ****     // eyeroll
ARM GAS  C:\Users\jon\AppData\Local\Temp\cck82k1g.s 			page 9


  96:main.c        ****     mouth_set(MOUTH_CLOSE);
 360              		.loc 1 96 0
 361 0002 0120     		movs	r0, #1
 362 0004 FFF7FEFF 		bl	mouth_set
 363              	.LVL45:
  97:main.c        ****     eyebrow_set(EYEBROW_NORMAL);
 364              		.loc 1 97 0
 365 0008 0020     		movs	r0, #0
 366 000a FFF7FEFF 		bl	eyebrow_set
 367              	.LVL46:
  98:main.c        ****     tilt_set(HEAD_TILT_CENTER);
 368              		.loc 1 98 0
 369 000e 0120     		movs	r0, #1
 370 0010 FFF7FEFF 		bl	tilt_set
 371              	.LVL47:
  99:main.c        ****     rotate_set(NECK_ROTATE_CENTER);
 372              		.loc 1 99 0
 373 0014 0120     		movs	r0, #1
 374 0016 FFF7FEFF 		bl	rotate_set
 375              	.LVL48:
 100:main.c        ****     eyeball_set(EYEBALL_UP);    
 376              		.loc 1 100 0
 377 001a 0320     		movs	r0, #3
 378 001c FFF7FEFF 		bl	eyeball_set
 379              	.LVL49:
 380 0020 08BD     		pop	{r3, pc}
 381              		.cfi_endproc
 382              	.LFE70:
 383              		.size	eyeroll, .-eyeroll
 384 0022 00BF     		.section	.text.main,"ax",%progbits
 385              		.align	2
 386              		.global	main
 387              		.thumb
 388              		.thumb_func
 389              		.type	main, %function
 390              	main:
 391              	.LFB71:
 101:main.c        **** }
 102:main.c        **** 
 103:main.c        **** 
 104:main.c        **** 
 105:main.c        **** int main(void)
 106:main.c        **** {
 392              		.loc 1 106 0
 393              		.cfi_startproc
 394              		@ Volatile: function does not return.
 395              		@ args = 0, pretend = 0, frame = 0
 396              		@ frame_needed = 0, uses_anonymous_args = 0
 397 0000 08B5     		push	{r3, lr}
 398              		.cfi_def_cfa_offset 8
 399              		.cfi_offset 3, -8
 400              		.cfi_offset 14, -4
 107:main.c        ****     CyGlobalIntEnable; /* Enable global interrupts. */
 401              		.loc 1 107 0
 402              		.syntax unified
 403              	@ 107 "main.c" 1
 404 0002 62B6     		CPSIE   i
ARM GAS  C:\Users\jon\AppData\Local\Temp\cck82k1g.s 			page 10


 405              	@ 0 "" 2
 108:main.c        **** 
 109:main.c        ****     /* Place your initialization/startup code here (e.g. MyInst_Start()) */
 110:main.c        ****     
 111:main.c        ****     neutral();
 406              		.loc 1 111 0
 407              		.thumb
 408              		.syntax unified
 409 0004 FFF7FEFF 		bl	neutral
 410              	.LVL50:
 112:main.c        ****     
 113:main.c        ****     Timer_Start();
 411              		.loc 1 113 0
 412 0008 FFF7FEFF 		bl	Timer_Start
 413              	.LVL51:
 114:main.c        ****     
 115:main.c        ****     timer_isr_StartEx(periodic_task);
 414              		.loc 1 115 0
 415 000c 1148     		ldr	r0, .L24
 416 000e FFF7FEFF 		bl	timer_isr_StartEx
 417              	.LVL52:
 116:main.c        ****     
 117:main.c        ****     CyDelay(1000);
 418              		.loc 1 117 0
 419 0012 4FF47A70 		mov	r0, #1000
 420 0016 FFF7FEFF 		bl	CyDelay
 421              	.LVL53:
 118:main.c        **** 
 119:main.c        ****     LeftEyebrow_Start();
 422              		.loc 1 119 0
 423 001a FFF7FEFF 		bl	LeftEyebrow_Start
 424              	.LVL54:
 120:main.c        ****     RightEyebrow_Start();
 425              		.loc 1 120 0
 426 001e FFF7FEFF 		bl	RightEyebrow_Start
 427              	.LVL55:
 121:main.c        ****     RightEyeball_Start();
 428              		.loc 1 121 0
 429 0022 FFF7FEFF 		bl	RightEyeball_Start
 430              	.LVL56:
 122:main.c        ****     LeftEyeball_Start();
 431              		.loc 1 122 0
 432 0026 FFF7FEFF 		bl	LeftEyeball_Start
 433              	.LVL57:
 123:main.c        ****     Eyelids_Start();
 434              		.loc 1 123 0
 435 002a FFF7FEFF 		bl	Eyelids_Start
 436              	.LVL58:
 124:main.c        ****     Lips_Start();
 437              		.loc 1 124 0
 438 002e FFF7FEFF 		bl	Lips_Start
 439              	.LVL59:
 125:main.c        ****     Base_Start();
 440              		.loc 1 125 0
 441 0032 FFF7FEFF 		bl	Base_Start
 442              	.LVL60:
 126:main.c        ****     Neck_Start();
ARM GAS  C:\Users\jon\AppData\Local\Temp\cck82k1g.s 			page 11


 443              		.loc 1 126 0
 444 0036 FFF7FEFF 		bl	Neck_Start
 445              	.LVL61:
 446              	.L22:
 127:main.c        ****     
 128:main.c        ****     
 129:main.c        ****     for(;;)
 130:main.c        ****     {
 131:main.c        ****         confused();
 447              		.loc 1 131 0 discriminator 1
 448 003a FFF7FEFF 		bl	confused
 449              	.LVL62:
 132:main.c        ****         CyDelay(STEP_DELAY);
 450              		.loc 1 132 0 discriminator 1
 451 003e 064C     		ldr	r4, .L24+4
 452 0040 2046     		mov	r0, r4
 453 0042 FFF7FEFF 		bl	CyDelay
 454              	.LVL63:
 133:main.c        ****         anguish();
 455              		.loc 1 133 0 discriminator 1
 456 0046 FFF7FEFF 		bl	anguish
 457              	.LVL64:
 134:main.c        ****         CyDelay(STEP_DELAY);
 458              		.loc 1 134 0 discriminator 1
 459 004a 2046     		mov	r0, r4
 460 004c FFF7FEFF 		bl	CyDelay
 461              	.LVL65:
 462 0050 F3E7     		b	.L22
 463              	.L25:
 464 0052 00BF     		.align	2
 465              	.L24:
 466 0054 00000000 		.word	periodic_task
 467 0058 40420F00 		.word	1000000
 468              		.cfi_endproc
 469              	.LFE71:
 470              		.size	main, .-main
 471              		.text
 472              	.Letext0:
 473              		.file 2 "c:\\program files (x86)\\cypress\\psoc creator\\4.2\\psoc creator\\import\\gnu\\arm\\5.4.
 474              		.file 3 "c:\\program files (x86)\\cypress\\psoc creator\\4.2\\psoc creator\\import\\gnu\\arm\\5.4.
 475              		.file 4 "neckcontrol.h"
 476              		.file 5 "mouthcontrol.h"
 477              		.file 6 "eyecontrol.h"
 478              		.file 7 "Generated_Source\\PSoC5/Timer.h"
 479              		.file 8 "servocontrol.h"
 480              		.file 9 "Generated_Source\\PSoC5/CyLib.h"
 481              		.file 10 "Generated_Source\\PSoC5/timer_isr.h"
 482              		.file 11 "Generated_Source\\PSoC5/LeftEyebrow.h"
 483              		.file 12 "Generated_Source\\PSoC5/RightEyebrow.h"
 484              		.file 13 "Generated_Source\\PSoC5/RightEyeball.h"
 485              		.file 14 "Generated_Source\\PSoC5/LeftEyeball.h"
 486              		.file 15 "Generated_Source\\PSoC5/Eyelids.h"
 487              		.file 16 "Generated_Source\\PSoC5/Lips.h"
 488              		.file 17 "Generated_Source\\PSoC5/Base.h"
 489              		.file 18 "Generated_Source\\PSoC5/Neck.h"
 490              		.file 19 "Generated_Source\\PSoC5/core_cm3.h"