ARM GAS  C:\Users\jon\AppData\Local\Temp\ccmJJXAa.s 			page 1


   1              		.syntax unified
   2              		.cpu cortex-m3
   3              		.fpu softvfp
   4              		.eabi_attribute 20, 1
   5              		.eabi_attribute 21, 1
   6              		.eabi_attribute 23, 3
   7              		.eabi_attribute 24, 1
   8              		.eabi_attribute 25, 1
   9              		.eabi_attribute 26, 1
  10              		.eabi_attribute 30, 1
  11              		.eabi_attribute 34, 1
  12              		.eabi_attribute 18, 4
  13              		.thumb
  14              		.syntax unified
  15              		.file	"mouthcontrol.c"
  16              		.text
  17              	.Ltext0:
  18              		.cfi_sections	.debug_frame
  19              		.section	.text.mouth_set,"ax",%progbits
  20              		.align	2
  21              		.global	mouth_set
  22              		.thumb
  23              		.thumb_func
  24              		.type	mouth_set, %function
  25              	mouth_set:
  26              	.LFB63:
  27              		.file 1 "mouthcontrol.c"
   1:mouthcontrol.c **** /* ========================================
   2:mouthcontrol.c ****  *
   3:mouthcontrol.c ****  * Copyright YOUR COMPANY, THE YEAR
   4:mouthcontrol.c ****  * All Rights Reserved
   5:mouthcontrol.c ****  * UNPUBLISHED, LICENSED SOFTWARE.
   6:mouthcontrol.c ****  *
   7:mouthcontrol.c ****  * CONFIDENTIAL AND PROPRIETARY INFORMATION
   8:mouthcontrol.c ****  * WHICH IS THE PROPERTY OF your company.
   9:mouthcontrol.c ****  *
  10:mouthcontrol.c ****  * ========================================
  11:mouthcontrol.c **** */
  12:mouthcontrol.c **** 
  13:mouthcontrol.c **** #include "mouthcontrol.h"
  14:mouthcontrol.c **** #include "servocontrol.h"
  15:mouthcontrol.c **** 
  16:mouthcontrol.c **** void mouth_set(mouth_position option) {
  28              		.loc 1 16 0
  29              		.cfi_startproc
  30              		@ args = 0, pretend = 0, frame = 0
  31              		@ frame_needed = 0, uses_anonymous_args = 0
  32              	.LVL0:
  33 0000 08B5     		push	{r3, lr}
  34              		.cfi_def_cfa_offset 8
  35              		.cfi_offset 3, -8
  36              		.cfi_offset 14, -4
  17:mouthcontrol.c ****     switch (option) {
  37              		.loc 1 17 0
  38 0002 10B1     		cbz	r0, .L3
  39 0004 0128     		cmp	r0, #1
  40 0006 05D0     		beq	.L4
ARM GAS  C:\Users\jon\AppData\Local\Temp\ccmJJXAa.s 			page 2


  41 0008 08BD     		pop	{r3, pc}
  42              	.L3:
  18:mouthcontrol.c ****         case MOUTH_OPEN:
  19:mouthcontrol.c ****             set_smooth_servo_angle(JAW, 90);
  43              		.loc 1 19 0
  44 000a 5A21     		movs	r1, #90
  45 000c 0320     		movs	r0, #3
  46              	.LVL1:
  47 000e FFF7FEFF 		bl	set_smooth_servo_angle
  48              	.LVL2:
  20:mouthcontrol.c ****             break;
  49              		.loc 1 20 0
  50 0012 08BD     		pop	{r3, pc}
  51              	.LVL3:
  52              	.L4:
  21:mouthcontrol.c ****         case MOUTH_CLOSE:
  22:mouthcontrol.c ****             set_smooth_servo_angle(JAW, 130);
  53              		.loc 1 22 0
  54 0014 8221     		movs	r1, #130
  55 0016 0320     		movs	r0, #3
  56              	.LVL4:
  57 0018 FFF7FEFF 		bl	set_smooth_servo_angle
  58              	.LVL5:
  59 001c 08BD     		pop	{r3, pc}
  60              		.cfi_endproc
  61              	.LFE63:
  62              		.size	mouth_set, .-mouth_set
  63 001e 00BF     		.section	.text.lip_set,"ax",%progbits
  64              		.align	2
  65              		.global	lip_set
  66              		.thumb
  67              		.thumb_func
  68              		.type	lip_set, %function
  69              	lip_set:
  70              	.LFB64:
  23:mouthcontrol.c ****             break;
  24:mouthcontrol.c ****         default:
  25:mouthcontrol.c ****             break;
  26:mouthcontrol.c ****     }
  27:mouthcontrol.c **** }
  28:mouthcontrol.c **** 
  29:mouthcontrol.c **** void lip_set(lip_position option) {
  71              		.loc 1 29 0
  72              		.cfi_startproc
  73              		@ args = 0, pretend = 0, frame = 0
  74              		@ frame_needed = 0, uses_anonymous_args = 0
  75              	.LVL6:
  76 0000 08B5     		push	{r3, lr}
  77              		.cfi_def_cfa_offset 8
  78              		.cfi_offset 3, -8
  79              		.cfi_offset 14, -4
  30:mouthcontrol.c ****     switch (option) {
  80              		.loc 1 30 0
  81 0002 0328     		cmp	r0, #3
  82 0004 26D8     		bhi	.L6
  83 0006 DFE800F0 		tbb	[pc, r0]
  84              	.L9:
ARM GAS  C:\Users\jon\AppData\Local\Temp\ccmJJXAa.s 			page 3


  85 000a 02       		.byte	(.L8-.L9)/2
  86 000b 0B       		.byte	(.L10-.L9)/2
  87 000c 14       		.byte	(.L11-.L9)/2
  88 000d 1D       		.byte	(.L12-.L9)/2
  89              		.p2align 1
  90              	.L8:
  31:mouthcontrol.c ****         case LIP_NORMAL:
  32:mouthcontrol.c ****             set_smooth_servo_angle(LIP_LEFT, 80);
  91              		.loc 1 32 0
  92 000e 5021     		movs	r1, #80
  93 0010 0420     		movs	r0, #4
  94              	.LVL7:
  95 0012 FFF7FEFF 		bl	set_smooth_servo_angle
  96              	.LVL8:
  33:mouthcontrol.c ****             set_smooth_servo_angle(LIP_RIGHT, 90);
  97              		.loc 1 33 0
  98 0016 5A21     		movs	r1, #90
  99 0018 0520     		movs	r0, #5
 100 001a FFF7FEFF 		bl	set_smooth_servo_angle
 101              	.LVL9:
  34:mouthcontrol.c ****             break;
 102              		.loc 1 34 0
 103 001e 08BD     		pop	{r3, pc}
 104              	.LVL10:
 105              	.L10:
  35:mouthcontrol.c ****         case LIP_LEFT_SMIRK:
  36:mouthcontrol.c ****             set_smooth_servo_angle(LIP_LEFT, 60);
 106              		.loc 1 36 0
 107 0020 3C21     		movs	r1, #60
 108 0022 0420     		movs	r0, #4
 109              	.LVL11:
 110 0024 FFF7FEFF 		bl	set_smooth_servo_angle
 111              	.LVL12:
  37:mouthcontrol.c ****             set_smooth_servo_angle(LIP_RIGHT, 90);
 112              		.loc 1 37 0
 113 0028 5A21     		movs	r1, #90
 114 002a 0520     		movs	r0, #5
 115 002c FFF7FEFF 		bl	set_smooth_servo_angle
 116              	.LVL13:
  38:mouthcontrol.c ****             break;
 117              		.loc 1 38 0
 118 0030 08BD     		pop	{r3, pc}
 119              	.LVL14:
 120              	.L11:
  39:mouthcontrol.c ****         case LIP_RIGHT_SMIRK:
  40:mouthcontrol.c ****             set_smooth_servo_angle(LIP_LEFT, 80);
 121              		.loc 1 40 0
 122 0032 5021     		movs	r1, #80
 123 0034 0420     		movs	r0, #4
 124              	.LVL15:
 125 0036 FFF7FEFF 		bl	set_smooth_servo_angle
 126              	.LVL16:
  41:mouthcontrol.c ****             set_smooth_servo_angle(LIP_RIGHT, 120);
 127              		.loc 1 41 0
 128 003a 7821     		movs	r1, #120
 129 003c 0520     		movs	r0, #5
 130 003e FFF7FEFF 		bl	set_smooth_servo_angle
ARM GAS  C:\Users\jon\AppData\Local\Temp\ccmJJXAa.s 			page 4


 131              	.LVL17:
  42:mouthcontrol.c ****             break;
 132              		.loc 1 42 0
 133 0042 08BD     		pop	{r3, pc}
 134              	.LVL18:
 135              	.L12:
  43:mouthcontrol.c ****         case LIP_BOTH_DOWN:
  44:mouthcontrol.c ****             set_smooth_servo_angle(LIP_RIGHT, 60);
 136              		.loc 1 44 0
 137 0044 3C21     		movs	r1, #60
 138 0046 0520     		movs	r0, #5
 139              	.LVL19:
 140 0048 FFF7FEFF 		bl	set_smooth_servo_angle
 141              	.LVL20:
  45:mouthcontrol.c ****             set_smooth_servo_angle(LIP_LEFT, 120);
 142              		.loc 1 45 0
 143 004c 7821     		movs	r1, #120
 144 004e 0420     		movs	r0, #4
 145 0050 FFF7FEFF 		bl	set_smooth_servo_angle
 146              	.LVL21:
 147              	.L6:
 148 0054 08BD     		pop	{r3, pc}
 149              		.cfi_endproc
 150              	.LFE64:
 151              		.size	lip_set, .-lip_set
 152 0056 00BF     		.text
 153              	.Letext0:
 154              		.file 2 "mouthcontrol.h"
 155              		.file 3 "c:\\program files (x86)\\cypress\\psoc creator\\4.2\\psoc creator\\import\\gnu\\arm\\5.4.
 156              		.file 4 "c:\\program files (x86)\\cypress\\psoc creator\\4.2\\psoc creator\\import\\gnu\\arm\\5.4.
 157              		.file 5 "servocontrol.h"
 158              		.file 6 "Generated_Source\\PSoC5/core_cm3.h"