ARM GAS  C:\Users\jon\AppData\Local\Temp\ccd8ChlE.s 			page 1


   1              		.syntax unified
   2              		.cpu cortex-m3
   3              		.fpu softvfp
   4              		.eabi_attribute 20, 1
   5              		.eabi_attribute 21, 1
   6              		.eabi_attribute 23, 3
   7              		.eabi_attribute 24, 1
   8              		.eabi_attribute 25, 1
   9              		.eabi_attribute 26, 1
  10              		.eabi_attribute 30, 1
  11              		.eabi_attribute 34, 1
  12              		.eabi_attribute 18, 4
  13              		.thumb
  14              		.syntax unified
  15              		.file	"neckcontrol.c"
  16              		.text
  17              	.Ltext0:
  18              		.cfi_sections	.debug_frame
  19              		.section	.text.rotate_set,"ax",%progbits
  20              		.align	2
  21              		.global	rotate_set
  22              		.thumb
  23              		.thumb_func
  24              		.type	rotate_set, %function
  25              	rotate_set:
  26              	.LFB63:
  27              		.file 1 "neckcontrol.c"
   1:neckcontrol.c **** /* ========================================
   2:neckcontrol.c ****  *
   3:neckcontrol.c ****  * Copyright YOUR COMPANY, THE YEAR
   4:neckcontrol.c ****  * All Rights Reserved
   5:neckcontrol.c ****  * UNPUBLISHED, LICENSED SOFTWARE.
   6:neckcontrol.c ****  *
   7:neckcontrol.c ****  * CONFIDENTIAL AND PROPRIETARY INFORMATION
   8:neckcontrol.c ****  * WHICH IS THE PROPERTY OF your company.
   9:neckcontrol.c ****  *
  10:neckcontrol.c ****  * ========================================
  11:neckcontrol.c **** */
  12:neckcontrol.c **** 
  13:neckcontrol.c **** #include "neckcontrol.h"
  14:neckcontrol.c **** #include "servocontrol.h"
  15:neckcontrol.c **** 
  16:neckcontrol.c **** void rotate_set(neck_rotation option) {
  28              		.loc 1 16 0
  29              		.cfi_startproc
  30              		@ args = 0, pretend = 0, frame = 0
  31              		@ frame_needed = 0, uses_anonymous_args = 0
  32              	.LVL0:
  33 0000 08B5     		push	{r3, lr}
  34              		.cfi_def_cfa_offset 8
  35              		.cfi_offset 3, -8
  36              		.cfi_offset 14, -4
  17:neckcontrol.c ****     switch (option) {
  37              		.loc 1 17 0
  38 0002 0128     		cmp	r0, #1
  39 0004 08D0     		beq	.L3
  40 0006 10B1     		cbz	r0, .L4
ARM GAS  C:\Users\jon\AppData\Local\Temp\ccd8ChlE.s 			page 2


  41 0008 0228     		cmp	r0, #2
  42 000a 0AD0     		beq	.L5
  43 000c 08BD     		pop	{r3, pc}
  44              	.L4:
  18:neckcontrol.c ****         case NECK_ROTATE_LEFT:
  19:neckcontrol.c ****             set_smooth_servo_angle(BASE_ROTATE, 90);
  45              		.loc 1 19 0
  46 000e 5A21     		movs	r1, #90
  47 0010 0020     		movs	r0, #0
  48              	.LVL1:
  49 0012 FFF7FEFF 		bl	set_smooth_servo_angle
  50              	.LVL2:
  20:neckcontrol.c ****             break;
  51              		.loc 1 20 0
  52 0016 08BD     		pop	{r3, pc}
  53              	.LVL3:
  54              	.L3:
  21:neckcontrol.c ****         case NECK_ROTATE_CENTER:
  22:neckcontrol.c ****             set_smooth_servo_angle(BASE_ROTATE, 135);
  55              		.loc 1 22 0
  56 0018 8721     		movs	r1, #135
  57 001a 0020     		movs	r0, #0
  58              	.LVL4:
  59 001c FFF7FEFF 		bl	set_smooth_servo_angle
  60              	.LVL5:
  23:neckcontrol.c ****             break;        
  61              		.loc 1 23 0
  62 0020 08BD     		pop	{r3, pc}
  63              	.LVL6:
  64              	.L5:
  24:neckcontrol.c ****         case NECK_ROTATE_RIGHT:
  25:neckcontrol.c ****             set_smooth_servo_angle(BASE_ROTATE, 180);
  65              		.loc 1 25 0
  66 0022 B421     		movs	r1, #180
  67 0024 0020     		movs	r0, #0
  68              	.LVL7:
  69 0026 FFF7FEFF 		bl	set_smooth_servo_angle
  70              	.LVL8:
  71 002a 08BD     		pop	{r3, pc}
  72              		.cfi_endproc
  73              	.LFE63:
  74              		.size	rotate_set, .-rotate_set
  75              		.section	.text.tilt_set,"ax",%progbits
  76              		.align	2
  77              		.global	tilt_set
  78              		.thumb
  79              		.thumb_func
  80              		.type	tilt_set, %function
  81              	tilt_set:
  82              	.LFB64:
  26:neckcontrol.c ****             break;
  27:neckcontrol.c ****         default:
  28:neckcontrol.c ****             break;
  29:neckcontrol.c ****     }
  30:neckcontrol.c **** }
  31:neckcontrol.c **** 
  32:neckcontrol.c **** void tilt_set(head_tilt option) {
ARM GAS  C:\Users\jon\AppData\Local\Temp\ccd8ChlE.s 			page 3


  83              		.loc 1 32 0
  84              		.cfi_startproc
  85              		@ args = 0, pretend = 0, frame = 0
  86              		@ frame_needed = 0, uses_anonymous_args = 0
  87              	.LVL9:
  88 0000 08B5     		push	{r3, lr}
  89              		.cfi_def_cfa_offset 8
  90              		.cfi_offset 3, -8
  91              		.cfi_offset 14, -4
  33:neckcontrol.c ****     switch (option) {
  92              		.loc 1 33 0
  93 0002 0428     		cmp	r0, #4
  94 0004 30D8     		bhi	.L7
  95 0006 DFE800F0 		tbb	[pc, r0]
  96              	.L10:
  97 000a 15       		.byte	(.L9-.L10)/2
  98 000b 0C       		.byte	(.L11-.L10)/2
  99 000c 03       		.byte	(.L12-.L10)/2
 100 000d 1E       		.byte	(.L13-.L10)/2
 101 000e 27       		.byte	(.L14-.L10)/2
 102 000f 00       		.p2align 1
 103              	.L12:
  34:neckcontrol.c ****         case HEAD_TILT_RIGHT:
  35:neckcontrol.c ****             set_smooth_servo_angle(NECK_LEFT, 140);
 104              		.loc 1 35 0
 105 0010 8C21     		movs	r1, #140
 106 0012 0120     		movs	r0, #1
 107              	.LVL10:
 108 0014 FFF7FEFF 		bl	set_smooth_servo_angle
 109              	.LVL11:
  36:neckcontrol.c ****             set_smooth_servo_angle(NECK_RIGHT, 120);
 110              		.loc 1 36 0
 111 0018 7821     		movs	r1, #120
 112 001a 0220     		movs	r0, #2
 113 001c FFF7FEFF 		bl	set_smooth_servo_angle
 114              	.LVL12:
  37:neckcontrol.c ****             break;
 115              		.loc 1 37 0
 116 0020 08BD     		pop	{r3, pc}
 117              	.LVL13:
 118              	.L11:
  38:neckcontrol.c ****         case HEAD_TILT_CENTER:
  39:neckcontrol.c ****             set_smooth_servo_angle(NECK_LEFT, 90);
 119              		.loc 1 39 0
 120 0022 5A21     		movs	r1, #90
 121 0024 0120     		movs	r0, #1
 122              	.LVL14:
 123 0026 FFF7FEFF 		bl	set_smooth_servo_angle
 124              	.LVL15:
  40:neckcontrol.c ****             set_smooth_servo_angle(NECK_RIGHT, 100);
 125              		.loc 1 40 0
 126 002a 6421     		movs	r1, #100
 127 002c 0220     		movs	r0, #2
 128 002e FFF7FEFF 		bl	set_smooth_servo_angle
 129              	.LVL16:
  41:neckcontrol.c ****             break;
 130              		.loc 1 41 0
ARM GAS  C:\Users\jon\AppData\Local\Temp\ccd8ChlE.s 			page 4


 131 0032 08BD     		pop	{r3, pc}
 132              	.LVL17:
 133              	.L9:
  42:neckcontrol.c ****         case HEAD_TILT_LEFT:
  43:neckcontrol.c ****             set_smooth_servo_angle(NECK_LEFT, 80);
 134              		.loc 1 43 0
 135 0034 5021     		movs	r1, #80
 136 0036 0120     		movs	r0, #1
 137              	.LVL18:
 138 0038 FFF7FEFF 		bl	set_smooth_servo_angle
 139              	.LVL19:
  44:neckcontrol.c ****             set_smooth_servo_angle(NECK_RIGHT, 70);
 140              		.loc 1 44 0
 141 003c 4621     		movs	r1, #70
 142 003e 0220     		movs	r0, #2
 143 0040 FFF7FEFF 		bl	set_smooth_servo_angle
 144              	.LVL20:
  45:neckcontrol.c ****             break;
 145              		.loc 1 45 0
 146 0044 08BD     		pop	{r3, pc}
 147              	.LVL21:
 148              	.L13:
  46:neckcontrol.c ****         case HEAD_TILT_BACK:
  47:neckcontrol.c ****             set_smooth_servo_angle(NECK_LEFT, 60);
 149              		.loc 1 47 0
 150 0046 3C21     		movs	r1, #60
 151 0048 0120     		movs	r0, #1
 152              	.LVL22:
 153 004a FFF7FEFF 		bl	set_smooth_servo_angle
 154              	.LVL23:
  48:neckcontrol.c ****             set_smooth_servo_angle(NECK_RIGHT, 130);
 155              		.loc 1 48 0
 156 004e 8221     		movs	r1, #130
 157 0050 0220     		movs	r0, #2
 158 0052 FFF7FEFF 		bl	set_smooth_servo_angle
 159              	.LVL24:
  49:neckcontrol.c ****             break;
 160              		.loc 1 49 0
 161 0056 08BD     		pop	{r3, pc}
 162              	.LVL25:
 163              	.L14:
  50:neckcontrol.c ****         case HEAD_TILT_FORWARD:
  51:neckcontrol.c ****             set_smooth_servo_angle(NECK_LEFT, 160);
 164              		.loc 1 51 0
 165 0058 A021     		movs	r1, #160
 166 005a 0120     		movs	r0, #1
 167              	.LVL26:
 168 005c FFF7FEFF 		bl	set_smooth_servo_angle
 169              	.LVL27:
  52:neckcontrol.c ****             set_smooth_servo_angle(NECK_RIGHT, 30);
 170              		.loc 1 52 0
 171 0060 1E21     		movs	r1, #30
 172 0062 0220     		movs	r0, #2
 173 0064 FFF7FEFF 		bl	set_smooth_servo_angle
 174              	.LVL28:
 175              	.L7:
 176 0068 08BD     		pop	{r3, pc}
ARM GAS  C:\Users\jon\AppData\Local\Temp\ccd8ChlE.s 			page 5


 177              		.cfi_endproc
 178              	.LFE64:
 179              		.size	tilt_set, .-tilt_set
 180 006a 00BF     		.text
 181              	.Letext0:
 182              		.file 2 "neckcontrol.h"
 183              		.file 3 "c:\\program files (x86)\\cypress\\psoc creator\\4.2\\psoc creator\\import\\gnu\\arm\\5.4.
 184              		.file 4 "c:\\program files (x86)\\cypress\\psoc creator\\4.2\\psoc creator\\import\\gnu\\arm\\5.4.
 185              		.file 5 "servocontrol.h"
 186              		.file 6 "Generated_Source\\PSoC5/core_cm3.h"