ARM GAS  C:\Users\jon\AppData\Local\Temp\ccsxdgwC.s 			page 1


   1              		.syntax unified
   2              		.cpu cortex-m3
   3              		.fpu softvfp
   4              		.eabi_attribute 20, 1
   5              		.eabi_attribute 21, 1
   6              		.eabi_attribute 23, 3
   7              		.eabi_attribute 24, 1
   8              		.eabi_attribute 25, 1
   9              		.eabi_attribute 26, 1
  10              		.eabi_attribute 30, 1
  11              		.eabi_attribute 34, 1
  12              		.eabi_attribute 18, 4
  13              		.thumb
  14              		.syntax unified
  15              		.file	"servocontrol.c"
  16              		.text
  17              	.Ltext0:
  18              		.cfi_sections	.debug_frame
  19              		.section	.text.angle_to_compare,"ax",%progbits
  20              		.align	2
  21              		.global	angle_to_compare
  22              		.thumb
  23              		.thumb_func
  24              		.type	angle_to_compare, %function
  25              	angle_to_compare:
  26              	.LFB63:
  27              		.file 1 "servocontrol.c"
   1:servocontrol.c **** /* ========================================
   2:servocontrol.c ****  *
   3:servocontrol.c ****  * Copyright YOUR COMPANY, THE YEAR
   4:servocontrol.c ****  * All Rights Reserved
   5:servocontrol.c ****  * UNPUBLISHED, LICENSED SOFTWARE.
   6:servocontrol.c ****  *
   7:servocontrol.c ****  * CONFIDENTIAL AND PROPRIETARY INFORMATION
   8:servocontrol.c ****  * WHICH IS THE PROPERTY OF your company.
   9:servocontrol.c ****  *
  10:servocontrol.c ****  * ========================================
  11:servocontrol.c **** */
  12:servocontrol.c **** 
  13:servocontrol.c **** #include "servocontrol.h"
  14:servocontrol.c **** 
  15:servocontrol.c **** servo_state servo_map[] = {
  16:servocontrol.c ****     {.write_compare = Base_WriteCompare1, .current = MOTOR_CENTER, .target = MOTOR_CENTER, .step = 
  17:servocontrol.c ****     {.write_compare = Neck_WriteCompare1, .current = MOTOR_CENTER, .target = MOTOR_CENTER, .step = 
  18:servocontrol.c ****     {.write_compare = Neck_WriteCompare2, .current = MOTOR_CENTER, .target = MOTOR_CENTER, .step = 
  19:servocontrol.c ****     {.write_compare = Base_WriteCompare2, .current = MOTOR_CENTER, .target = MOTOR_CENTER, .step = 
  20:servocontrol.c ****     {.write_compare = Lips_WriteCompare1, .current = MOTOR_CENTER, .target = MOTOR_CENTER, .step = 
  21:servocontrol.c ****     {.write_compare = Lips_WriteCompare2, .current = MOTOR_CENTER, .target = MOTOR_CENTER, .step = 
  22:servocontrol.c ****     {.write_compare = LeftEyeball_WriteCompare1, .current = MOTOR_CENTER, .target = MOTOR_CENTER, .
  23:servocontrol.c ****     {.write_compare = LeftEyeball_WriteCompare2, .current = MOTOR_CENTER, .target = MOTOR_CENTER, .
  24:servocontrol.c ****     {.write_compare = RightEyeball_WriteCompare1, .current = MOTOR_CENTER, .target = MOTOR_CENTER, 
  25:servocontrol.c ****     {.write_compare = RightEyeball_WriteCompare2, .current = MOTOR_CENTER, .target = MOTOR_CENTER, 
  26:servocontrol.c ****     {.write_compare = Eyelids_WriteCompare1, .current = MOTOR_CENTER, .target = MOTOR_CENTER, .step
  27:servocontrol.c ****     {.write_compare = Eyelids_WriteCompare2, .current = MOTOR_CENTER, .target = MOTOR_CENTER, .step
  28:servocontrol.c ****     {.write_compare = LeftEyebrow_WriteCompare1, .current = MOTOR_CENTER, .target = MOTOR_CENTER, .
  29:servocontrol.c ****     {.write_compare = LeftEyebrow_WriteCompare2, .current = MOTOR_CENTER, .target = MOTOR_CENTER, .
  30:servocontrol.c ****     {.write_compare = RightEyebrow_WriteCompare1, .current = MOTOR_CENTER, .target = MOTOR_CENTER, 
ARM GAS  C:\Users\jon\AppData\Local\Temp\ccsxdgwC.s 			page 2


  31:servocontrol.c ****     {.write_compare = RightEyebrow_WriteCompare2, .current = MOTOR_CENTER, .target = MOTOR_CENTER, 
  32:servocontrol.c **** };
  33:servocontrol.c **** 
  34:servocontrol.c **** 
  35:servocontrol.c **** uint16 angle_to_compare(uint16 angle_value) {
  28              		.loc 1 35 0
  29              		.cfi_startproc
  30              		@ args = 0, pretend = 0, frame = 0
  31              		@ frame_needed = 0, uses_anonymous_args = 0
  32              		@ link register save eliminated.
  33              	.LVL0:
  36:servocontrol.c ****     return MOTOR_LOW + (angle_value * (MOTOR_HIGH - MOTOR_LOW)) / 180;
  34              		.loc 1 36 0
  35 0000 C0EB0010 		rsb	r0, r0, r0, lsl #4
  36              	.LVL1:
  37 0004 C301     		lsls	r3, r0, #7
  38 0006 0548     		ldr	r0, .L2
  39 0008 80FB0320 		smull	r2, r0, r0, r3
  40 000c 1844     		add	r0, r0, r3
  41 000e DB17     		asrs	r3, r3, #31
  42 0010 C3EBE010 		rsb	r0, r3, r0, asr #7
  43 0014 00F58C70 		add	r0, r0, #280
  37:servocontrol.c **** }
  44              		.loc 1 37 0
  45 0018 80B2     		uxth	r0, r0
  46 001a 7047     		bx	lr
  47              	.L3:
  48              		.align	2
  49              	.L2:
  50 001c B7600BB6 		.word	-1240768329
  51              		.cfi_endproc
  52              	.LFE63:
  53              		.size	angle_to_compare, .-angle_to_compare
  54              		.section	.text.set_smooth_servo_angle,"ax",%progbits
  55              		.align	2
  56              		.global	set_smooth_servo_angle
  57              		.thumb
  58              		.thumb_func
  59              		.type	set_smooth_servo_angle, %function
  60              	set_smooth_servo_angle:
  61              	.LFB64:
  38:servocontrol.c **** 
  39:servocontrol.c **** //void set_servo_angle(void (*compare_func)(uint16), uint8 angle) {
  40:servocontrol.c **** //    uint16 compare = MOTOR_LOW + (angle *(MOTOR_HIGH - MOTOR_LOW)) * 180;
  41:servocontrol.c **** //    (*compare_func)(compare);
  42:servocontrol.c **** //}
  43:servocontrol.c **** 
  44:servocontrol.c **** void set_smooth_servo_angle(servo servo_id, uint8 angle) {
  62              		.loc 1 44 0
  63              		.cfi_startproc
  64              		@ args = 0, pretend = 0, frame = 0
  65              		@ frame_needed = 0, uses_anonymous_args = 0
  66              	.LVL2:
  67 0000 10B5     		push	{r4, lr}
  68              		.cfi_def_cfa_offset 8
  69              		.cfi_offset 4, -8
  70              		.cfi_offset 14, -4
ARM GAS  C:\Users\jon\AppData\Local\Temp\ccsxdgwC.s 			page 3


  71 0002 0446     		mov	r4, r0
  45:servocontrol.c ****     servo_map[(uint8)servo_id].target = angle_to_compare(angle);
  72              		.loc 1 45 0
  73 0004 0846     		mov	r0, r1
  74              	.LVL3:
  75 0006 FFF7FEFF 		bl	angle_to_compare
  76              	.LVL4:
  77 000a 04EB4404 		add	r4, r4, r4, lsl #1
  78 000e A300     		lsls	r3, r4, #2
  79 0010 014A     		ldr	r2, .L6
  80 0012 1344     		add	r3, r3, r2
  81 0014 D880     		strh	r0, [r3, #6]	@ movhi
  82 0016 10BD     		pop	{r4, pc}
  83              	.L7:
  84              		.align	2
  85              	.L6:
  86 0018 00000000 		.word	.LANCHOR0
  87              		.cfi_endproc
  88              	.LFE64:
  89              		.size	set_smooth_servo_angle, .-set_smooth_servo_angle
  90              		.section	.text.update_servos,"ax",%progbits
  91              		.align	2
  92              		.global	update_servos
  93              		.thumb
  94              		.thumb_func
  95              		.type	update_servos, %function
  96              	update_servos:
  97              	.LFB65:
  46:servocontrol.c **** }
  47:servocontrol.c **** 
  48:servocontrol.c **** 
  49:servocontrol.c **** void update_servos() {
  98              		.loc 1 49 0
  99              		.cfi_startproc
 100              		@ args = 0, pretend = 0, frame = 0
 101              		@ frame_needed = 0, uses_anonymous_args = 0
 102 0000 38B5     		push	{r3, r4, r5, lr}
 103              		.cfi_def_cfa_offset 16
 104              		.cfi_offset 3, -16
 105              		.cfi_offset 4, -12
 106              		.cfi_offset 5, -8
 107              		.cfi_offset 14, -4
 108              	.LVL5:
 109              	.LBB2:
  50:servocontrol.c ****     servo_state *serv;
  51:servocontrol.c ****     
  52:servocontrol.c ****     for (uint8 i = 0; i < 16; ++i) {
 110              		.loc 1 52 0
 111 0002 0024     		movs	r4, #0
 112 0004 2FE0     		b	.L9
 113              	.LVL6:
 114              	.L13:
  53:servocontrol.c ****         serv = &servo_map[i];
 115              		.loc 1 53 0
 116 0006 2346     		mov	r3, r4
 117              	.LVL7:
  54:servocontrol.c ****         if (serv->current + serv->step < serv->target) {
ARM GAS  C:\Users\jon\AppData\Local\Temp\ccsxdgwC.s 			page 4


 118              		.loc 1 54 0
 119 0008 6100     		lsls	r1, r4, #1
 120 000a 2144     		add	r1, r1, r4
 121 000c 8A00     		lsls	r2, r1, #2
 122 000e 1749     		ldr	r1, .L15
 123 0010 0A44     		add	r2, r2, r1
 124 0012 9588     		ldrh	r5, [r2, #4]
 125 0014 1189     		ldrh	r1, [r2, #8]
 126 0016 6818     		adds	r0, r5, r1
 127 0018 D288     		ldrh	r2, [r2, #6]
 128 001a 9042     		cmp	r0, r2
 129 001c 07DA     		bge	.L10
  55:servocontrol.c ****             serv->current += serv->step;
 130              		.loc 1 55 0
 131 001e 04EB4400 		add	r0, r4, r4, lsl #1
 132 0022 8200     		lsls	r2, r0, #2
 133 0024 1148     		ldr	r0, .L15
 134 0026 0244     		add	r2, r2, r0
 135 0028 2944     		add	r1, r1, r5
 136 002a 9180     		strh	r1, [r2, #4]	@ movhi
 137 002c 10E0     		b	.L11
 138              	.L10:
  56:servocontrol.c ****         } else if (serv->current - serv->step > serv->target) {
 139              		.loc 1 56 0
 140 002e 681A     		subs	r0, r5, r1
 141 0030 8242     		cmp	r2, r0
 142 0032 07DA     		bge	.L12
  57:servocontrol.c ****             serv->current -= serv->step;
 143              		.loc 1 57 0
 144 0034 04EB4400 		add	r0, r4, r4, lsl #1
 145 0038 8200     		lsls	r2, r0, #2
 146 003a 0C48     		ldr	r0, .L15
 147 003c 0244     		add	r2, r2, r0
 148 003e 691A     		subs	r1, r5, r1
 149 0040 9180     		strh	r1, [r2, #4]	@ movhi
 150 0042 05E0     		b	.L11
 151              	.L12:
  58:servocontrol.c ****         } else {
  59:servocontrol.c ****             serv->current = serv->target;
 152              		.loc 1 59 0
 153 0044 04EB4400 		add	r0, r4, r4, lsl #1
 154 0048 8100     		lsls	r1, r0, #2
 155 004a 0848     		ldr	r0, .L15
 156 004c 0144     		add	r1, r1, r0
 157 004e 8A80     		strh	r2, [r1, #4]	@ movhi
 158              	.L11:
  60:servocontrol.c ****         }
  61:servocontrol.c ****         //Neck_WriteCompare1(serv->current);
  62:servocontrol.c ****         (*serv->write_compare)(serv->current);
 159              		.loc 1 62 0 discriminator 2
 160 0050 0648     		ldr	r0, .L15
 161 0052 5900     		lsls	r1, r3, #1
 162 0054 CD18     		adds	r5, r1, r3
 163 0056 AA00     		lsls	r2, r5, #2
 164 0058 1546     		mov	r5, r2
 165 005a 0244     		add	r2, r2, r0
 166 005c 4359     		ldr	r3, [r0, r5]
ARM GAS  C:\Users\jon\AppData\Local\Temp\ccsxdgwC.s 			page 5


 167              	.LVL8:
 168 005e 9088     		ldrh	r0, [r2, #4]
 169 0060 9847     		blx	r3
 170              	.LVL9:
  52:servocontrol.c ****         serv = &servo_map[i];
 171              		.loc 1 52 0 discriminator 2
 172 0062 0134     		adds	r4, r4, #1
 173              	.LVL10:
 174 0064 E4B2     		uxtb	r4, r4
 175              	.LVL11:
 176              	.L9:
  52:servocontrol.c ****         serv = &servo_map[i];
 177              		.loc 1 52 0 is_stmt 0 discriminator 1
 178 0066 0F2C     		cmp	r4, #15
 179 0068 CDD9     		bls	.L13
 180              	.LBE2:
  63:servocontrol.c ****     }
  64:servocontrol.c **** }
 181              		.loc 1 64 0 is_stmt 1
 182 006a 38BD     		pop	{r3, r4, r5, pc}
 183              	.LVL12:
 184              	.L16:
 185              		.align	2
 186              	.L15:
 187 006c 00000000 		.word	.LANCHOR0
 188              		.cfi_endproc
 189              	.LFE65:
 190              		.size	update_servos, .-update_servos
 191              		.global	servo_map
 192              		.data
 193              		.align	2
 194              		.set	.LANCHOR0,. + 0
 195              		.type	servo_map, %object
 196              		.size	servo_map, 192
 197              	servo_map:
 198 0000 00000000 		.word	Base_WriteCompare1
 199 0004 D804     		.short	1240
 200 0006 D804     		.short	1240
 201 0008 0300     		.short	3
 202 000a 0000     		.space	2
 203 000c 00000000 		.word	Neck_WriteCompare1
 204 0010 D804     		.short	1240
 205 0012 D804     		.short	1240
 206 0014 0500     		.short	5
 207 0016 0000     		.space	2
 208 0018 00000000 		.word	Neck_WriteCompare2
 209 001c D804     		.short	1240
 210 001e D804     		.short	1240
 211 0020 0500     		.short	5
 212 0022 0000     		.space	2
 213 0024 00000000 		.word	Base_WriteCompare2
 214 0028 D804     		.short	1240
 215 002a D804     		.short	1240
 216 002c 0700     		.short	7
 217 002e 0000     		.space	2
 218 0030 00000000 		.word	Lips_WriteCompare1
 219 0034 D804     		.short	1240
ARM GAS  C:\Users\jon\AppData\Local\Temp\ccsxdgwC.s 			page 6


 220 0036 D804     		.short	1240
 221 0038 0500     		.short	5
 222 003a 0000     		.space	2
 223 003c 00000000 		.word	Lips_WriteCompare2
 224 0040 D804     		.short	1240
 225 0042 D804     		.short	1240
 226 0044 0500     		.short	5
 227 0046 0000     		.space	2
 228 0048 00000000 		.word	LeftEyeball_WriteCompare1
 229 004c D804     		.short	1240
 230 004e D804     		.short	1240
 231 0050 0500     		.short	5
 232 0052 0000     		.space	2
 233 0054 00000000 		.word	LeftEyeball_WriteCompare2
 234 0058 D804     		.short	1240
 235 005a D804     		.short	1240
 236 005c 0500     		.short	5
 237 005e 0000     		.space	2
 238 0060 00000000 		.word	RightEyeball_WriteCompare1
 239 0064 D804     		.short	1240
 240 0066 D804     		.short	1240
 241 0068 0500     		.short	5
 242 006a 0000     		.space	2
 243 006c 00000000 		.word	RightEyeball_WriteCompare2
 244 0070 D804     		.short	1240
 245 0072 D804     		.short	1240
 246 0074 0500     		.short	5
 247 0076 0000     		.space	2
 248 0078 00000000 		.word	Eyelids_WriteCompare1
 249 007c D804     		.short	1240
 250 007e D804     		.short	1240
 251 0080 0500     		.short	5
 252 0082 0000     		.space	2
 253 0084 00000000 		.word	Eyelids_WriteCompare2
 254 0088 D804     		.short	1240
 255 008a D804     		.short	1240
 256 008c 0A00     		.short	10
 257 008e 0000     		.space	2
 258 0090 00000000 		.word	LeftEyebrow_WriteCompare1
 259 0094 D804     		.short	1240
 260 0096 D804     		.short	1240
 261 0098 0500     		.short	5
 262 009a 0000     		.space	2
 263 009c 00000000 		.word	LeftEyebrow_WriteCompare2
 264 00a0 D804     		.short	1240
 265 00a2 D804     		.short	1240
 266 00a4 0500     		.short	5
 267 00a6 0000     		.space	2
 268 00a8 00000000 		.word	RightEyebrow_WriteCompare1
 269 00ac D804     		.short	1240
 270 00ae D804     		.short	1240
 271 00b0 0500     		.short	5
 272 00b2 0000     		.space	2
 273 00b4 00000000 		.word	RightEyebrow_WriteCompare2
 274 00b8 D804     		.short	1240
 275 00ba D804     		.short	1240
 276 00bc 0500     		.short	5
ARM GAS  C:\Users\jon\AppData\Local\Temp\ccsxdgwC.s 			page 7


 277 00be 0000     		.space	2
 278              		.text
 279              	.Letext0:
 280              		.file 2 "c:\\program files (x86)\\cypress\\psoc creator\\4.2\\psoc creator\\import\\gnu\\arm\\5.4.
 281              		.file 3 "c:\\program files (x86)\\cypress\\psoc creator\\4.2\\psoc creator\\import\\gnu\\arm\\5.4.
 282              		.file 4 "Generated_Source\\PSoC5/cytypes.h"
 283              		.file 5 "servocontrol.h"
 284              		.file 6 "Generated_Source\\PSoC5/core_cm3.h"